(lp0
(lp1
(S'54178/00'
p2
S'33977/96'
p3
tp4
a(g2
S'28523/95'
p5
tp6
a(g2
S'51585/99'
p7
tp8
a(g2
S'30210/96'
p9
tp10
a(g2
S'53341/99'
p11
tp12
a(S'10559/03'
p13
S'60750/00'
p14
tp15
a(g13
S'32734/96'
p16
tp17
a(g13
S'29439/02'
p18
tp19
a(S'5044/02'
p20
S'30979/96'
p21
tp22
a(g20
S'42320/98'
p23
tp24
a(g20
S'30210/96'
p25
tp26
a(g20
S'23032/02'
p27
tp28
a(g20
S'15118/89'
p29
tp30
a(S'39272/98'
p31
S'28957/95'
p32
tp33
a(g31
S'23452/94'
p34
tp35
a(g31
S'24760/94'
p36
tp37
a(g31
S'29392/95'
p38
tp39
a(g31
S'8978/80'
p40
tp41
a(g31
S'33218/96'
p42
tp43
a(g31
S'33202/96'
p44
tp45
a(g31
S'32967/96'
p46
tp47
a(S'37444/97'
p48
S'27785/95'
p49
tp50
a(g48
S'47095/99'
p51
tp52
a(g48
S'27915/95'
p53
tp54
a(g48
S'25498/94'
p55
tp56
a(g48
S'20972/92'
p57
tp58
a(g48
S'26761/95'
p59
tp60
a(g48
S'31464/96'
p61
tp62
a(g48
S'24755/94'
p63
tp64
a(g48
S'33492/96'
p65
tp66
a(g48
S'30210/96'
p67
tp68
a(g48
S'34611/97'
p69
tp70
a(S'14838/89'
p71
S'13343/87'
p72
tp73
a(g71
S'11801/85'
p74
tp75
a(S'67979/01'
p76
S'15797/89'
p77
tp78
a(g76
S'39597/98'
p79
tp80
a(g76
S'30210/96'
p81
tp82
a(g76
S'11491/85'
p83
tp84
a(S'43276/06'
p85
S'30979/96'
p86
tp87
a(g85
S'36813/97'
p88
tp89
a(g85
S'75529/01'
p90
tp91
a(g85
S'23459/94'
p92
tp93
a(g85
S'35062/03'
p94
tp95
a(g85
S'48129/99'
p96
tp97
a(g85
S'11548/04'
p98
tp99
a(g85
S'26307/95'
p100
tp101
a(g85
S'30210/96'
p102
tp103
a(g85
S'53084/99'
p104
tp105
a(S'44962/98'
p106
S'25181/94'
p107
tp108
a(g106
S'21497/93'
p109
tp110
a(g106
S'8658/79'
p111
tp112
a(g106
S'17748/91'
p113
tp114
a(g106
S'18990/91'
p115
tp116
a(g106
S'39594/98'
p117
tp118
a(g106
S'15764/89'
p119
tp120
a(g106
S'19075/91'
p121
tp122
a(S'22313/04'
p123
S'74727/01'
p124
tp125
a(g123
S'56581/00'
p126
tp127
a(g123
S'72286/01'
p128
tp129
a(g123
S'32092/02'
p130
tp131
a(g123
S'30663/04'
p132
tp133
a(g123
S'28135/95'
p134
tp135
a(g123
S'7025/04'
p136
tp137
a(g123
S'20310/02'
p138
tp139
a(g123
S'4378/02'
p140
tp141
a(g123
S'16404/03'
p142
tp143
a(g123
S'26103/95'
p144
tp145
a(g123
S'17551/02'
p146
tp147
a(g123
S'54810/00'
p148
tp149
a(g123
S'39311/05'
p150
tp151
a(g123
S'29731/96'
p152
tp153
a(g123
S'36391/02'
p154
tp155
a(S'18949/91'
p156
S'8398/78'
p157
tp158
a(g156
S'9562/81'
p159
tp160
a(g156
S'12744/87'
p161
tp162
a(g156
S'11932/86'
p163
tp164
a(S'48983/99'
p165
S'19263/92'
p166
tp167
a(g165
S'12033/86'
p168
tp169
a(g165
S'4464/70'
p170
tp171
a(S'48015/99'
p172
S'8130/78'
p173
tp174
a(g172
S'28212/95'
p175
tp176
a(g172
S'24888/94'
p177
tp178
a(g172
S'46295/99'
p179
tp180
a(S'38112/04'
p181
S'21417/04'
p182
tp183
a(g181
S'69306/01'
p184
tp185
a(g181
S'30616/05'
p186
tp187
a(g181
S'25444/94'
p188
tp189
a(g181
S'25803/94'
p190
tp191
a(g181
S'33071/96'
p192
tp193
a(g181
S'34578/97'
p194
tp195
a(g181
S'74456/01'
p196
tp197
a(S'30042/08'
p198
S'69332/01'
p199
tp200
a(g198
S'28524/95'
p201
tp202
a(g198
S'59450/00'
p203
tp204
a(g198
S'25498/94'
p205
tp206
a(g198
S'26772/95'
p207
tp208
a(g198
S'30210/96'
p209
tp210
a(g198
S'40653/98'
p211
tp212
a(S'48542/99'
p213
S'19823/92'
p214
tp215
a(g213
S'10465/83'
p216
tp217
a(g213
S'9749/82'
p218
tp219
a(g213
S'9580/81'
p220
tp221
a(g213
S'23452/94'
p222
tp223
a(g213
S'16969/90'
p224
tp225
a(g213
S'13441/87'
p226
tp227
a(g213
S'8978/80'
p228
tp229
a(S'24735/94'
p230
S'22880/93'
p231
tp232
a(g230
S'29183/95'
p233
tp234
a(g230
S'22678/93'
p235
tp236
a(g230
S'17419/90'
p237
tp238
a(g230
S'31195/96'
p239
tp240
a(g230
S'9815/82'
p241
tp242
a(g230
S'18954/91'
p243
tp244
a(g230
S'19601/92'
p245
tp246
a(S'52782/99'
p247
S'22678/93'
p248
tp249
a(g247
S'42775/98'
p250
tp251
a(g247
S'19601/92'
p252
tp253
a(S'4241/03'
p254
S'14448/88'
p255
tp256
a(g254
S'10877/04'
p257
tp258
a(g254
S'17851/91'
p259
tp260
a(g254
S'39748/98'
p261
tp262
a(g254
S'25196/04'
p263
tp264
a(g254
S'67336/01'
p265
tp266
a(g254
S'38460/97'
p267
tp268
a(g254
S'11800/85'
p269
tp270
a(g254
S'30544/96'
p271
tp272
a(g254
S'7601/76'
p273
tp274
a(S'22009/93'
p275
S'17383/90'
p276
tp277
a(g275
S'14518/89'
p278
tp279
a(g275
S'6833/74'
p280
tp281
a(g275
S'5029/71'
p282
tp283
a(g275
S'7525/76'
p284
tp285
a(g275
S'13441/87'
p286
tp287
a(g275
S'18139/91'
p288
tp289
a(g275
S'18748/91'
p290
tp291
a(g275
S'9749/82'
p292
tp293
a(g275
S'9248/81'
p294
tp295
a(S'75107/01'
p296
S'19380/92'
p297
tp298
a(g296
S'28358/95'
p299
tp300
a(g296
S'17584/04'
p301
tp302
a(g296
S'13425/02'
p303
tp304
a(g296
S'26772/95'
p305
tp306
a(g296
S'14379/88'
p307
tp308
a(g296
S'39510/98'
p309
tp310
a(g296
S'34578/97'
p311
tp312
a(g296
S'33977/96'
p313
tp314
a(g296
S'28904/02'
p315
tp316
a(g296
S'543/03'
p317
tp318
a(g296
S'33492/96'
p319
tp320
a(g296
S'30210/96'
p321
tp322
a(g296
S'28213/95'
p323
tp324
a(S'1509/02'
p325
S'45963/99'
p326
tp327
a(g325
S'71933/01'
p328
tp329
a(g325
S'18390/91'
p330
tp331
a(g325
S'14139/03'
p332
tp333
a(g325
S'49684/99'
p334
tp335
a(g325
S'55762/00'
p336
tp337
a(g325
S'37801/97'
p338
tp339
a(S'17647/04'
p340
S'17209/02'
p341
tp342
a(g340
S'47940/99'
p343
tp344
a(g340
S'8793/79'
p345
tp346
a(g340
S'10522/83'
p347
tp348
a(g340
S'31107/96'
p349
tp350
a(g340
S'4251/02'
p351
tp352
a(g340
S'30961/03'
p353
tp354
a(g340
S'33202/96'
p355
tp356
a(g340
S'35014/97'
p357
tp358
a(g340
S'22774/93'
p359
tp360
a(g340
S'25803/94'
p361
tp362
a(g340
S'21893/93'
p363
tp364
a(g340
S'12868/87'
p365
tp366
a(g340
S'31122/05'
p367
tp368
a(g340
S'15375/89'
p369
tp370
a(g340
S'7299/75'
p371
tp372
a(g340
S'30210/96'
p373
tp374
a(g340
S'22107/93'
p375
tp376
a(g340
S'35349/05'
p377
tp378
a(g340
S'31443/96'
p379
tp380
a(S'52895/99'
p381
S'19639/92'
p382
tp383
a(S'9106/80'
p384
S'9990/82'
p385
tp386
a(g384
S'7367/76'
p387
tp388
a(g384
S'8695/79'
p389
tp390
a(g384
S'8805/79'
p391
tp392
a(g384
S'7906/77'
p393
tp394
a(g384
S'6301/73'
p395
tp396
a(g384
S'9006/80'
p397
tp398
a(g384
S'8990/80'
p399
tp400
a(g384
S'9186/80'
p401
tp402
a(g384
S'9787/82'
p403
tp404
a(g384
S'2832/66'
p405
tp406
a(S'9072/02'
p407
S'69498/01'
p408
tp409
a(g407
S'52589/99'
p410
tp411
a(g407
S'31107/96'
p412
tp413
a(g407
S'34469/05'
p414
tp415
a(g407
S'44302/02'
p416
tp417
a(g407
S'28025/03'
p418
tp419
a(g407
S'46720/99'
p420
tp421
a(g407
S'13616/88'
p422
tp423
a(g407
S'73049/01'
p424
tp425
a(g407
S'9006/80'
p426
tp427
a(g407
S'28856/95'
p428
tp429
a(g407
S'22774/93'
p430
tp431
a(g407
S'31423/96'
p432
tp433
a(g407
S'43622/98'
p434
tp435
a(g407
S'37710/97'
p436
tp437
a(g407
S'21987/93'
p438
tp439
a(g407
S'33202/96'
p440
tp441
a(g407
S'7151/75'
p442
tp443
a(g407
S'9118/80'
p444
tp445
a(S'24325/03'
p446
S'62208/00'
p447
tp448
a(g446
S'62936/00'
p449
tp450
a(g446
S'22535/93'
p451
tp452
a(g446
S'21986/93'
p453
tp454
a(g446
S'66460/01'
p455
tp456
a(g446
S'21689/93'
p457
tp458
a(g446
S'4451/70'
p459
tp460
a(g446
S'59261/00'
p461
tp462
a(g446
S'7064/05'
p463
tp464
a(g446
S'7178/03'
p465
tp466
a(g446
S'5310/71'
p467
tp468
a(g446
S'47095/99'
p469
tp470
a(g446
S'57947/00'
p471
tp472
a(g446
S'22083/93'
p473
tp474
a(g446
S'24760/94'
p475
tp476
a(g446
S'44558/98'
p477
tp478
a(g446
S'30997/02'
p479
tp480
a(g446
S'18139/91'
p481
tp482
a(g446
S'43393/98'
p483
tp484
a(g446
S'6847/02'
p485
tp486
a(g446
S'8225/78'
p487
tp488
a(g446
S'30873/96'
p489
tp490
a(g446
S'30138/02'
p491
tp492
a(g446
S'26772/95'
p493
tp494
a(g446
S'69908/01'
p495
tp496
a(g446
S'63378/00'
p497
tp498
a(g446
S'46477/99'
p499
tp500
a(S'57049/00'
p501
S'22676/93'
p502
tp503
a(g501
S'18984/91'
p504
tp505
a(g501
S'23763/94'
p506
tp507
a(g501
S'22729/93'
p508
tp509
a(g501
S'21986/93'
p510
tp511
a(g501
S'21593/93'
p512
tp513
a(g501
S'28883/95'
p514
tp515
a(g501
S'25052/94'
p516
tp517
a(g501
S'23818/94'
p518
tp519
a(g501
S'22495/93'
p520
tp521
a(g501
S'21594/93'
p522
tp523
a(g501
S'22277/93'
p524
tp525
a(g501
S'19807/92'
p526
tp527
a(g501
S'22535/93'
p528
tp529
a(g501
S'25657/94'
p530
tp531
a(g501
S'46477/99'
p532
tp533
a(g501
S'68345/01'
p534
tp535
a(g501
S'23657/94'
p536
tp537
a(g501
S'50385/99'
p538
tp539
a(g501
S'15473/89'
p540
tp541
a(g501
S'22492/93'
p542
tp543
a(g501
S'24746/94'
p544
tp545
a(g501
S'41488/98'
p546
tp547
a(S'77545/01'
p548
S'30979/96'
p549
tp550
a(g548
S'42320/98'
p551
tp552
a(g548
S'23032/02'
p553
tp554
a(S'15828/03'
p555
S'22947/93'
p556
tp557
a(g555
S'32446/96'
p558
tp559
a(g555
S'26803/02'
p560
tp561
a(g555
S'44093/98'
p562
tp563
a(g555
S'33086/04'
p564
tp565
a(g555
S'26772/95'
p566
tp567
a(g555
S'40154/98'
p568
tp569
a(g555
S'52515/99'
p570
tp571
a(g555
S'30009/03'
p572
tp573
a(g555
S'54169/00'
p574
tp575
a(g555
S'32347/02'
p576
tp577
a(g555
S'33097/96'
p578
tp579
a(S'14326/11'
p580
S'48939/99'
p581
tp582
a(g580
S'59548/00'
p583
tp584
a(g580
S'53924/00'
p585
tp586
a(g580
S'22535/93'
p587
tp588
a(g580
S'22492/93'
p589
tp590
a(g580
S'23413/94'
p591
tp592
a(g580
S'23452/94'
p593
tp594
a(g580
S'11562/05'
p595
tp596
a(g580
S'19776/04'
p597
tp598
a(g580
S'27229/95'
p599
tp600
a(g580
S'37703/97'
p601
tp602
a(g580
S'71463/01'
p603
tp604
a(g580
S'46477/99'
p605
tp606
a(g580
S'45744/08'
p607
tp608
a(g580
S'32967/96'
p609
tp610
a(g580
S'38361/97'
p611
tp612
a(S'49398/99'
p613
S'19263/92'
p614
tp615
a(g613
S'19639/92'
p616
tp617
a(S'41030/02'
p618
S'60750/00'
p619
tp620
a(g618
S'41510/98'
p621
tp622
a(g618
S'59498/00'
p623
tp624
a(g618
S'67534/01'
p625
tp626
a(S'33274/96'
p627
S'27798/95'
p628
tp629
a(g627
S'13590/88'
p630
tp631
a(g627
S'13710/88'
p632
tp633
a(S'42750/09'
p634
S'20134/05'
p635
tp636
a(g634
S'9990/82'
p637
tp638
a(g634
S'7367/76'
p639
tp640
a(g634
S'9174/02'
p641
tp642
a(g634
S'46468/06'
p643
tp644
a(g634
S'23536/94'
p645
tp646
a(g634
S'19776/92'
p647
tp648
a(g634
S'36376/04'
p649
tp650
a(g634
S'36760/06'
p651
tp652
a(g634
S'46295/99'
p653
tp654
a(g634
S'19359/04'
p655
tp656
a(g634
S'37201/97'
p657
tp658
a(g634
S'1051/06'
p659
tp660
a(g634
S'29295/95'
p661
tp662
a(g634
S'20190/92'
p663
tp664
a(g634
S'71503/01'
p665
tp666
a(g634
S'40984/07'
p667
tp668
a(g634
S'17440/90'
p669
tp670
a(g634
S'15917/89'
p671
tp672
a(g634
S'14307/88'
p673
tp674
a(g634
S'10249/03'
p675
tp676
a(g634
S'32772/02'
p677
tp678
a(g634
S'20166/92'
p679
tp680
a(g634
S'24478/03'
p681
tp682
a(g634
S'11801/85'
p683
tp684
a(g634
S'7906/77'
p685
tp686
a(g634
S'17862/91'
p687
tp688
a(g634
S'37575/04'
p689
tp690
a(g634
S'39221/98'
p691
tp692
a(g634
S'21906/04'
p693
tp694
a(g634
S'28358/95'
p695
tp696
a(g634
S'67335/01'
p697
tp698
a(g634
S'31443/96'
p699
tp700
a(g634
S'2312/08'
p701
tp702
a(g634
S'32492/96'
p703
tp704
a(g634
S'9787/82'
p705
tp706
a(g634
S'29226/03'
p707
tp708
a(g634
S'34044/96'
p709
tp710
a(S'45223/05'
p711
S'13163/87'
p712
tp713
a(g711
S'39652/98'
p714
tp715
a(g711
S'1948/04'
p716
tp717
a(g711
S'51564/99'
p718
tp719
a(g711
S'19776/92'
p720
tp721
a(g711
S'26772/95'
p722
tp723
a(g711
S'57942/00'
p724
tp725
a(g711
S'21893/93'
p726
tp727
a(g711
S'22414/93'
p728
tp729
a(g711
S'56271/00'
p730
tp731
a(g711
S'40035/98'
p732
tp733
a(g711
S'12433/86'
p734
tp735
a(g711
S'14038/88'
p736
tp737
a(g711
S'28114/95'
p738
tp739
a(g711
S'15576/89'
p740
tp741
a(g711
S'21987/93'
p742
tp743
a(S'28090/95'
p744
S'26737/95'
p745
tp746
a(g744
S'15797/89'
p747
tp748
a(g744
S'25420/94'
p749
tp750
a(g744
S'24295/94'
p751
tp752
a(g744
S'28028/95'
p753
tp754
a(g744
S'24550/94'
p755
tp756
a(S'12144/86'
p757
S'214/56'
p758
tp759
a(S'77649/01'
p760
S'46221/99'
p761
tp762
a(g760
S'11209/84'
p763
tp764
a(g760
S'13972/88'
p765
tp766
a(g760
S'18731/91'
p767
tp768
a(S'47023/99'
p769
S'9120/80'
p770
tp771
a(g769
S'11454/85'
p772
tp773
a(g769
S'14647/89'
p774
tp775
a(g769
S'20524/92'
p776
tp777
a(g769
S'10857/84'
p778
tp779
a(g769
S'21363/93'
p780
tp781
a(g769
S'37019/97'
p782
tp783
a(g769
S'30544/96'
p784
tp785
a(S'56760/00'
p786
S'28524/95'
p787
tp788
a(g786
S'18984/91'
p789
tp790
a(g786
S'40905/98'
p791
tp792
a(g786
S'24888/94'
p793
tp794
a(g786
S'22729/93'
p795
tp796
a(g786
S'25656/94'
p797
tp798
a(g786
S'21593/93'
p799
tp800
a(g786
S'28883/95'
p801
tp802
a(g786
S'23818/94'
p803
tp804
a(g786
S'22495/93'
p805
tp806
a(g786
S'21594/93'
p807
tp808
a(g786
S'22277/93'
p809
tp810
a(g786
S'21987/93'
p811
tp812
a(g786
S'24746/94'
p813
tp814
a(g786
S'25657/94'
p815
tp816
a(g786
S'48939/99'
p817
tp818
a(g786
S'47095/99'
p819
tp820
a(g786
S'24760/94'
p821
tp822
a(g786
S'34592/97'
p823
tp824
a(g786
S'23531/94'
p825
tp826
a(g786
S'23657/94'
p827
tp828
a(g786
S'50385/99'
p829
tp830
a(g786
S'22492/93'
p831
tp832
a(g786
S'26772/95'
p833
tp834
a(g786
S'35072/97'
p835
tp836
a(g786
S'21894/93'
p837
tp838
a(S'12145/86'
p839
S'9381/81'
p840
tp841
a(g839
S'11891/85'
p842
tp843
aa(lp844
g4
ag6
ag8
ag10
ag12
ag15
ag17
ag19
ag22
ag24
ag26
ag28
ag30
ag33
ag35
ag37
ag39
ag41
ag43
ag45
ag47
ag50
ag52
ag54
ag56
ag58
ag60
ag62
ag64
ag66
ag68
ag70
ag73
ag75
ag78
ag80
ag82
ag84
ag87
ag89
ag91
ag93
ag95
ag97
ag99
ag101
ag103
ag105
ag108
ag110
ag112
ag114
ag116
ag118
ag120
ag122
ag125
ag127
ag129
ag131
ag133
ag135
ag137
ag139
ag141
ag143
ag145
ag147
ag149
ag151
ag153
ag155
ag158
ag160
ag162
ag164
ag167
ag169
ag171
ag174
ag176
ag178
ag180
ag183
ag185
ag187
ag189
ag191
ag193
ag195
ag197
ag200
ag202
ag204
ag206
ag208
ag210
ag212
ag215
ag217
ag219
ag221
ag223
ag225
ag227
ag229
ag232
ag234
ag236
ag238
ag240
ag242
ag244
ag246
ag249
ag251
ag253
ag256
ag258
ag260
ag262
ag264
ag266
ag268
ag270
ag272
ag274
ag277
ag279
ag281
ag283
ag285
ag287
ag289
ag291
ag293
ag295
ag298
ag300
ag302
ag304
ag306
ag308
ag310
ag312
ag314
ag316
ag318
ag320
ag322
ag324
ag327
ag329
ag331
ag333
ag335
ag337
ag339
ag342
ag344
ag346
ag348
ag350
ag352
ag354
ag356
ag358
ag360
ag362
ag364
ag366
ag368
ag370
ag372
ag374
ag376
ag378
ag380
ag383
ag386
ag388
ag390
ag392
ag394
ag396
ag398
ag400
ag402
ag404
ag406
ag409
ag411
ag413
ag415
ag417
ag419
ag421
ag423
ag425
ag427
ag429
ag431
ag433
ag435
ag437
ag439
ag441
ag443
ag445
ag448
ag450
ag452
ag454
ag456
ag458
ag460
ag462
ag464
ag466
ag468
ag470
ag472
ag474
ag476
ag478
ag480
ag482
ag484
ag486
ag488
ag490
ag492
ag494
ag496
ag498
ag500
ag503
ag505
ag507
ag509
ag511
ag513
ag515
ag517
ag519
ag521
ag523
ag525
ag527
ag529
ag531
ag533
ag535
ag537
ag539
ag541
ag543
ag545
ag547
ag550
ag552
ag554
ag557
ag559
ag561
ag563
ag565
ag567
ag569
ag571
ag573
ag575
ag577
ag579
ag582
ag584
ag586
ag588
ag590
ag592
ag594
ag596
ag598
ag600
ag602
ag604
ag606
ag608
ag610
ag612
ag615
ag617
ag620
ag622
ag624
ag626
ag629
ag631
ag633
ag636
ag638
ag640
ag642
ag644
ag646
ag648
ag650
ag652
ag654
ag656
ag658
ag660
ag662
ag664
ag666
ag668
ag670
ag672
ag674
ag676
ag678
ag680
ag682
ag684
ag686
ag688
ag690
ag692
ag694
ag696
ag698
ag700
ag702
ag704
ag706
ag708
ag710
ag713
ag715
ag717
ag719
ag721
ag723
ag725
ag727
ag729
ag731
ag733
ag735
ag737
ag739
ag741
ag743
ag746
ag748
ag750
ag752
ag754
ag756
ag759
ag762
ag764
ag766
ag768
ag771
ag773
ag775
ag777
ag779
ag781
ag783
ag785
ag788
ag790
ag792
ag794
ag796
ag798
ag800
ag802
ag804
ag806
ag808
ag810
ag812
ag814
ag816
ag818
ag820
ag822
ag824
ag826
ag828
ag830
ag832
ag834
ag836
ag838
ag841
ag843
a(S'88/02'
p845
S'50516/99'
p846
tp847
a(S'21961/93'
p848
S'9381/81'
p849
tp850
a(S'26410/02'
p851
S'34630/07'
p852
tp853
a(S'71912/01'
p854
S'50360/08'
p855
tp856
a(S'3932/02'
p857
S'39343/98'
p858
tp859
a(S'32984/96'
p860
S'12106/09'
p861
tp862
a(S'15722/05'
p863
S'71551/01'
p864
tp865
a(S'21592/93'
p866
S'17988/02'
p867
tp868
a(S'19856/04'
p869
S'33933/05'
p870
tp871
a(S'28275/06'
p872
S'5134/09'
p873
tp874
a(S'39424/02'
p875
S'50213/08'
p876
tp877
a(S'11146/11'
p878
S'37763/04'
p879
tp880
a(S'63354/00'
p881
S'37616/02'
p882
tp883
a(S'17549/90'
p884
S'30342/96'
p885
tp886
a(S'19433/07'
p887
S'33654/06'
p888
tp889
a(S'25500/03'
p890
S'43589/02'
p891
tp892
a(S'3344/04'
p893
S'41833/04'
p894
tp895
a(S'57448/00'
p896
S'34438/04'
p897
tp898
a(S'24528/02'
p899
S'26124/02'
p900
tp901
a(S'31247/96'
p902
S'39958/02'
p903
tp904
a(S'11491/85'
p905
S'38971/06'
p906
tp907
a(S'19160/91'
p908
S'34653/04'
p909
tp910
a(S'74266/01'
p911
S'15670/04'
p912
tp913
a(S'16073/07'
p914
S'31836/04'
p915
tp916
a(S'27846/05'
p917
S'37439/97'
p918
tp919
a(S'28954/02'
p920
S'23556/94'
p921
tp922
a(S'38736/04'
p923
S'20688/04'
p924
tp925
a(S'15573/89'
p926
S'31881/96'
p927
tp928
a(S'1377/04'
p929
S'17440/90'
p930
tp931
a(S'14018/08'
p932
S'31320/05'
p933
tp934
a(S'16474/03'
p935
S'62866/00'
p936
tp937
a(S'45214/99'
p938
S'74352/11'
p939
tp940
a(S'6011/10'
p941
S'41840/02'
p942
tp943
a(S'41902/04'
p944
S'9286/04'
p945
tp946
a(S'1115/02'
p947
S'16982/05'
p948
tp949
a(S'20571/04'
p950
S'27916/95'
p951
tp952
a(S'35527/04'
p953
S'11830/03'
p954
tp955
a(S'44864/98'
p956
S'4417/02'
p957
tp958
a(S'48155/06'
p959
S'31127/96'
p960
tp961
a(S'65417/01'
p962
S'45566/08'
p963
tp964
a(S'33505/96'
p965
S'9668/06'
p966
tp967
a(S'36552/02'
p968
S'27781/95'
p969
tp970
a(S'59502/00'
p971
S'55853/00'
p972
tp973
a(S'60660/00'
p974
S'64520/10'
p975
tp976
a(S'28358/95'
p977
S'59548/00'
p978
tp979
a(S'52812/07'
p980
S'39690/98'
p981
tp982
a(S'41035/98'
p983
S'14226/04'
p984
tp985
a(S'11612/85'
p986
S'14450/02'
p987
tp988
a(S'66289/01'
p989
S'14810/02'
p990
tp991
a(S'51837/99'
p992
S'41723/06'
p993
tp994
a(S'20161/06'
p995
S'5326/04'
p996
tp997
a(S'47628/06'
p998
S'42343/98'
p999
tp1000
a(S'34120/96'
p1001
S'21352/02'
p1002
tp1003
a(g989
S'51545/99'
p1004
tp1005
a(S'64927/01'
p1006
S'21153/02'
p1007
tp1008
a(S'17674/02'
p1009
S'10842/84'
p1010
tp1011
a(S'47804/99'
p1012
S'43071/06'
p1013
tp1014
a(S'36103/04'
p1015
S'74550/12'
p1016
tp1017
a(S'42252/02'
p1018
S'37345/03'
p1019
tp1020
a(S'23780/08'
p1021
S'3684/07'
p1022
tp1023
a(S'6372/06'
p1024
S'11870/03'
p1025
tp1026
a(S'5515/09'
p1027
S'52806/09'
p1028
tp1029
a(S'9749/82'
p1030
S'19134/05'
p1031
tp1032
a(S'28973/11'
p1033
S'7054/10'
p1034
tp1035
a(S'25693/94'
p1036
S'45097/05'
p1037
tp1038
a(S'31853/96'
p1039
S'23865/02'
p1040
tp1041
a(S'26828/06'
p1042
g1001
tp1043
a(S'72520/01'
p1044
S'30633/06'
p1045
tp1046
a(S'4640/04'
p1047
S'50326/99'
p1048
tp1049
a(S'13418/03'
p1050
S'35485/05'
p1051
tp1052
a(S'74816/01'
p1053
S'75888/01'
p1054
tp1055
a(S'41775/06'
p1056
S'6282/06'
p1057
tp1058
a(S'37598/97'
p1059
S'35853/04'
p1060
tp1061
a(S'9659/82'
p1062
S'31864/06'
p1063
tp1064
a(S'33549/02'
p1065
S'45783/05'
p1066
tp1067
a(S'35128/02'
p1068
S'1926/03'
p1069
tp1070
a(S'15825/06'
p1071
S'8721/05'
p1072
tp1073
a(S'35605/97'
p1074
S'13323/02'
p1075
tp1076
a(S'39970/02'
p1077
S'75098/01'
p1078
tp1079
a(S'32541/96'
p1080
S'17869/91'
p1081
tp1082
a(S'28604/03'
p1083
S'20877/04'
p1084
tp1085
a(S'33914/02'
p1086
S'52442/09'
p1087
tp1088
a(S'2747/02'
p1089
S'39810/98'
p1090
tp1091
a(S'11910/85'
p1092
S'18310/06'
p1093
tp1094
a(S'39822/07'
p1095
S'36391/02'
p1096
tp1097
a(S'48297/99'
p1098
S'57641/00'
p1099
tp1100
a(S'16328/03'
p1101
S'20376/05'
p1102
tp1103
a(S'29699/96'
p1104
S'3840/05'
p1105
tp1106
a(S'77690/01'
p1107
S'5952/07'
p1108
tp1109
a(S'14396/88'
p1110
S'48990/99'
p1111
tp1112
a(S'12312/05'
p1113
S'33307/02'
p1114
tp1115
a(S'18535/91'
p1116
S'31556/03'
p1117
tp1118
a(S'57176/00'
p1119
S'16965/10'
p1120
tp1121
a(S'62194/00'
p1122
S'26637/95'
p1123
tp1124
a(S'28648/03'
p1125
S'38794/97'
p1126
tp1127
a(S'23992/02'
p1128
S'9261/02'
p1129
tp1130
a(S'49872/11'
p1131
S'9958/04'
p1132
tp1133
a(S'61967/00'
p1134
S'26261/05'
p1135
tp1136
a(S'23139/07'
p1137
S'78008/01'
p1138
tp1139
a(S'13444/04'
p1140
S'20937/07'
p1141
tp1142
a(S'20372/11'
p1143
S'8544/79'
p1144
tp1145
a(S'15809/02'
p1146
S'60333/00'
p1147
tp1148
a(S'23818/94'
p1149
S'60179/09'
p1150
tp1151
a(S'29334/06'
p1152
S'37553/05'
p1153
tp1154
a(S'25753/94'
p1155
S'25843/94'
p1156
tp1157
a(g857
S'28488/04'
p1158
tp1159
a(S'26529/10'
p1160
S'12718/87'
p1161
tp1162
a(S'37778/04'
p1163
S'34150/04'
p1164
tp1165
a(S'20745/04'
p1166
S'4504/04'
p1167
tp1168
a(S'1005/08'
p1169
S'33706/05'
p1170
tp1171
a(S'16621/05'
p1172
S'53943/07'
p1173
tp1174
a(S'17303/03'
p1175
S'4158/05'
p1176
tp1177
a(S'37193/08'
p1178
S'12463/05'
p1179
tp1180
a(S'24720/04'
p1181
S'63181/00'
p1182
tp1183
a(S'27209/03'
p1184
S'10496/83'
p1185
tp1186
a(S'2914/02'
p1187
S'38720/03'
p1188
tp1189
a(S'48242/06'
p1190
g893
tp1191
a(g981
S'41391/06'
p1192
tp1193
a(S'39401/04'
p1194
S'36258/97'
p1195
tp1196
a(S'24706/02'
p1197
S'56793/00'
p1198
tp1199
a(S'36035/04'
p1200
S'25116/94'
p1201
tp1202
a(S'54836/00'
p1203
S'18527/02'
p1204
tp1205
a(S'17472/04'
p1206
S'30255/09'
p1207
tp1208
a(S'61260/08'
p1209
S'13541/06'
p1210
tp1211
a(S'39437/98'
p1212
S'6924/03'
p1213
tp1214
a(S'60776/00'
p1215
S'2737/04'
p1216
tp1217
a(S'34481/97'
p1218
S'46295/99'
p1219
tp1220
a(S'28394/95'
p1221
S'35677/05'
p1222
tp1223
a(S'34151/04'
p1224
S'28309/03'
p1225
tp1226
a(S'44521/04'
p1227
S'13378/05'
p1228
tp1229
a(S'12583/09'
p1230
S'60132/00'
p1231
tp1232
a(S'67039/01'
p1233
S'11581/85'
p1234
tp1235
a(S'36772/02'
p1236
S'30742/03'
p1237
tp1238
a(S'36181/05'
p1239
S'71156/01'
p1240
tp1241
a(S'62435/00'
p1242
S'25706/03'
p1243
tp1244
a(S'38581/97'
p1245
S'25965/04'
p1246
tp1247
a(S'55299/07'
p1248
S'2393/05'
p1249
tp1250
a(S'32455/02'
p1251
S'35367/08'
p1252
tp1253
a(S'2895/07'
p1254
S'25052/94'
p1255
tp1256
a(S'27353/95'
p1257
S'17038/04'
p1258
tp1259
a(S'11562/05'
p1260
S'11855/85'
p1261
tp1262
a(S'17788/02'
p1263
S'21462/04'
p1264
tp1265
a(S'27912/02'
p1266
S'45289/99'
p1267
tp1268
a(S'40154/98'
p1269
S'40453/98'
p1270
tp1271
a(S'14996/05'
p1272
S'42184/05'
p1273
tp1274
a(S'20652/92'
p1275
S'44286/06'
p1276
tp1277
a(S'56016/00'
p1278
S'17912/05'
p1279
tp1280
a(S'49608/08'
p1281
S'23379/94'
p1282
tp1283
a(S'61222/00'
p1284
S'40962/04'
p1285
tp1286
a(S'32241/07'
p1287
S'37046/03'
p1288
tp1289
a(S'26676/06'
p1290
S'3989/07'
p1291
tp1292
a(S'24510/06'
p1293
S'29508/04'
p1294
tp1295
a(S'32220/96'
p1296
S'14077/05'
p1297
tp1298
a(S'5193/09'
p1299
S'29459/10'
p1300
tp1301
a(S'33488/96'
p1302
S'32577/96'
p1303
tp1304
a(g1006
S'37645/97'
p1305
tp1306
a(S'71243/01'
p1307
S'19382/92'
p1308
tp1309
a(S'34155/96'
p1310
S'41228/02'
p1311
tp1312
a(S'24541/94'
p1313
S'35760/04'
p1314
tp1315
a(S'59601/09'
p1316
S'20429/02'
p1317
tp1318
a(S'21911/03'
p1319
S'29808/02'
p1320
tp1321
a(S'27685/04'
p1322
S'74613/01'
p1323
tp1324
a(S'37251/04'
p1325
S'33347/07'
p1326
tp1327
a(S'48150/11'
p1328
S'21055/09'
p1329
tp1330
a(S'50034/99'
p1331
S'38523/02'
p1332
tp1333
a(S'22492/93'
p1334
S'38372/06'
p1335
tp1336
a(S'19558/09'
p1337
S'29287/02'
p1338
tp1339
a(S'25632/02'
p1340
S'75975/01'
p1341
tp1342
a(S'39206/07'
p1343
S'32542/96'
p1344
tp1345
a(S'14327/88'
p1346
S'2295/06'
p1347
tp1348
a(S'22729/93'
p1349
S'29052/03'
p1350
tp1351
a(S'13146/02'
p1352
S'45712/99'
p1353
tp1354
a(S'5417/06'
p1355
S'58971/00'
p1356
tp1357
a(S'36570/97'
p1358
S'8347/05'
p1359
tp1360
a(S'12728/87'
p1361
S'37453/97'
p1362
tp1363
a(S'5947/72'
p1364
S'5953/02'
p1365
tp1366
a(S'3906/06'
p1367
g1117
tp1368
a(S'39778/07'
p1369
S'26436/05'
p1370
tp1371
a(S'16622/05'
p1372
S'73604/01'
p1373
tp1374
a(S'75139/01'
p1375
S'6690/02'
p1376
tp1377
a(S'13467/05'
p1378
S'28888/02'
p1379
tp1380
a(S'27295/95'
p1381
S'33732/96'
p1382
tp1383
a(S'33132/02'
p1384
S'13088/09'
p1385
tp1386
a(S'31827/96'
p1387
S'31725/96'
p1388
tp1389
a(S'56717/00'
p1390
S'66083/01'
p1391
tp1392
a(S'10563/83'
p1393
S'74039/01'
p1394
tp1395
a(S'16999/04'
p1396
S'21040/02'
p1397
tp1398
a(S'3742/02'
p1399
g1025
tp1400
a(S'44369/02'
p1401
S'42281/02'
p1402
tp1403
a(S'17092/04'
p1404
S'55408/07'
p1405
tp1406
a(S'37112/97'
p1407
S'34211/04'
p1408
tp1409
a(S'67149/01'
p1410
S'12919/87'
p1411
tp1412
a(S'22666/08'
p1413
S'19567/02'
p1414
tp1415
a(S'52690/99'
p1416
S'77519/01'
p1417
tp1418
a(S'32964/02'
p1419
S'22014/04'
p1420
tp1421
a(S'7151/75'
p1422
S'47148/99'
p1423
tp1424
a(S'56698/00'
p1425
S'2220/05'
p1426
tp1427
a(S'48191/99'
p1428
S'40807/07'
p1429
tp1430
a(S'32940/08'
p1431
S'21880/03'
p1432
tp1433
a(S'48095/99'
p1434
S'21454/04'
p1435
tp1436
a(S'77835/01'
p1437
S'2954/07'
p1438
tp1439
a(S'2202/05'
p1440
S'53988/07'
p1441
tp1442
a(S'74651/01'
p1443
g1054
tp1444
a(S'63566/00'
p1445
S'43352/98'
p1446
tp1447
a(S'42703/98'
p1448
S'22978/05'
p1449
tp1450
a(S'307/02'
p1451
S'32644/96'
p1452
tp1453
a(S'9271/07'
p1454
S'39188/04'
p1455
tp1456
a(S'32981/96'
p1457
S'20727/04'
p1458
tp1459
a(S'9464/02'
p1460
S'8992/07'
p1461
tp1462
a(S'33294/03'
p1463
S'33066/04'
p1464
tp1465
a(S'32662/96'
p1466
S'32842/96'
p1467
tp1468
a(S'18378/03'
p1469
S'64705/01'
p1470
tp1471
a(S'12843/87'
p1472
S'37700/05'
p1473
tp1474
a(S'49158/99'
p1475
S'2192/03'
p1476
tp1477
a(S'13026/02'
p1478
S'43402/02'
p1479
tp1480
a(S'20303/07'
p1481
g1369
tp1482
a(S'6356/04'
p1483
S'19180/03'
p1484
tp1485
a(S'19324/02'
p1486
S'10947/04'
p1487
tp1488
a(S'21363/93'
p1489
S'12598/86'
p1490
tp1491
a(S'7821/07'
p1492
S'75618/01'
p1493
tp1494
a(S'1371/03'
p1495
S'59653/00'
p1496
tp1497
a(S'27004/06'
p1498
S'26692/05'
p1499
tp1500
a(S'12806/87'
p1501
S'26433/95'
p1502
tp1503
a(S'4646/02'
p1504
S'61382/09'
p1505
tp1506
a(S'20704/92'
p1507
S'18375/09'
p1508
tp1509
a(S'20882/04'
p1510
S'48684/99'
p1511
tp1512
a(S'13440/87'
p1513
S'22600/93'
p1514
tp1515
a(S'19813/03'
p1516
S'13099/04'
p1517
tp1518
a(S'16530/06'
p1519
S'23806/03'
p1520
tp1521
a(S'61391/00'
p1522
S'15145/05'
p1523
tp1524
a(S'12380/05'
p1525
S'43854/98'
p1526
tp1527
a(S'39547/98'
p1528
S'24959/06'
p1529
tp1530
a(S'34983/02'
p1531
S'37374/05'
p1532
tp1533
a(S'24173/06'
p1534
S'20824/02'
p1535
tp1536
a(S'53371/99'
p1537
S'55722/00'
p1538
tp1539
a(S'31926/96'
p1540
S'37500/04'
p1541
tp1542
a(S'60665/00'
p1543
S'26760/95'
p1544
tp1545
a(S'27568/02'
p1546
S'34976/05'
p1547
tp1548
a(S'13637/03'
p1549
S'30103/02'
p1550
tp1551
a(S'32668/02'
p1552
S'25904/07'
p1553
tp1554
a(S'20493/07'
p1555
S'31871/96'
p1556
tp1557
a(S'29992/05'
p1558
S'30240/96'
p1559
tp1560
a(S'10174/02'
p1561
g1340
tp1562
a(S'25452/03'
p1563
S'24250/11'
p1564
tp1565
a(S'17008/07'
p1566
S'32962/96'
p1567
tp1568
a(S'75038/01'
p1569
S'22373/04'
p1570
tp1571
a(S'13210/05'
p1572
g965
tp1573
a(S'39050/97'
p1574
S'61222/00'
p1575
tp1576
a(S'6563/03'
p1577
S'25580/03'
p1578
tp1579
a(S'12398/86'
p1580
S'32558/03'
p1581
tp1582
a(S'16463/09'
p1583
S'12712/02'
p1584
tp1585
a(S'63134/00'
p1586
S'66907/01'
p1587
tp1588
a(S'18255/05'
p1589
S'42620/02'
p1590
tp1591
a(S'40892/98'
p1592
S'34960/04'
p1593
tp1594
a(S'37376/05'
p1595
S'35354/04'
p1596
tp1597
a(S'31438/06'
p1598
S'10231/02'
p1599
tp1600
a(S'29202/95'
p1601
S'12850/87'
p1602
tp1603
a(S'40877/98'
p1604
S'20824/09'
p1605
tp1606
a(S'63767/00'
p1607
S'50757/06'
p1608
tp1609
a(S'45094/06'
p1610
S'29921/96'
p1611
tp1612
a(g1495
g1313
tp1613
a(S'69756/01'
p1614
S'18990/05'
p1615
tp1616
a(S'10664/05'
p1617
S'23960/02'
p1618
tp1619
a(S'11944/05'
p1620
S'26124/03'
p1621
tp1622
a(S'25003/06'
p1623
S'55531/00'
p1624
tp1625
a(S'24023/06'
p1626
S'20315/04'
p1627
tp1628
a(S'28940/95'
p1629
S'10398/04'
p1630
tp1631
a(S'69519/01'
p1632
S'75697/01'
p1633
tp1634
a(S'34215/02'
p1635
g972
tp1636
a(S'37095/97'
p1637
S'20348/92'
p1638
tp1639
a(S'40518/98'
p1640
S'26872/05'
p1641
tp1642
a(S'4171/03'
p1643
g1243
tp1644
a(S'75705/01'
p1645
S'34653/08'
p1646
tp1647
a(S'58887/00'
p1648
S'12316/07'
p1649
tp1650
a(S'30049/02'
p1651
S'8345/05'
p1652
tp1653
a(S'37395/97'
p1654
S'27225/05'
p1655
tp1656
a(g1219
S'14697/07'
p1657
tp1658
a(S'22070/93'
p1659
S'42083/98'
p1660
tp1661
a(S'10890/84'
p1662
S'29660/03'
p1663
tp1664
a(S'40132/02'
p1665
S'7272/09'
p1666
tp1667
a(S'1586/05'
p1668
S'29784/07'
p1669
tp1670
a(S'75617/01'
p1671
S'33685/05'
p1672
tp1673
a(S'1448/04'
p1674
S'53466/07'
p1675
tp1676
a(S'34684/97'
p1677
S'18557/06'
p1678
tp1679
a(g1045
S'67793/10'
p1680
tp1681
a(S'65656/11'
p1682
S'43485/02'
p1683
tp1684
a(S'7436/02'
p1685
S'2361/05'
p1686
tp1687
a(S'64098/00'
p1688
S'30686/03'
p1689
tp1690
a(S'5124/03'
p1691
S'5718/10'
p1692
tp1693
a(S'28746/03'
p1694
S'4922/04'
p1695
tp1696
a(S'12444/05'
p1697
S'29889/04'
p1698
tp1699
a(S'23462/94'
p1700
S'33734/06'
p1701
tp1702
a(S'20390/92'
p1703
S'39846/04'
p1704
tp1705
a(S'21199/03'
p1706
S'37463/04'
p1707
tp1708
a(S'48206/99'
p1709
S'27183/04'
p1710
tp1711
a(S'43258/98'
p1712
S'21353/93'
p1713
tp1714
a(S'32559/96'
p1715
S'43482/02'
p1716
tp1717
a(S'3925/05'
p1718
S'7906/77'
p1719
tp1720
a(S'44686/07'
p1721
S'126/05'
p1722
tp1723
a(S'7151/75'
p1724
S'3817/07'
p1725
tp1726
a(g1709
S'42606/05'
p1727
tp1728
a(S'28359/05'
p1729
S'61019/00'
p1730
tp1731
a(S'17327/02'
p1732
S'34720/97'
p1733
tp1734
a(S'22603/02'
p1735
S'3223/07'
p1736
tp1737
a(S'37820/06'
p1738
S'58590/11'
p1739
tp1740
a(S'23287/05'
p1741
g893
tp1742
a(S'49747/11'
p1743
S'75695/01'
p1744
tp1745
a(S'44936/07'
p1746
S'35052/04'
p1747
tp1748
a(S'39315/06'
p1749
S'27295/03'
p1750
tp1751
a(S'42246/02'
p1752
S'18877/91'
p1753
tp1754
a(S'44425/08'
p1755
S'20999/05'
p1756
tp1757
a(S'27888/04'
p1758
S'70494/01'
p1759
tp1760
a(S'52478/99'
p1761
g858
tp1762
a(S'23926/02'
p1763
S'34656/03'
p1764
tp1765
a(S'19589/02'
p1766
g989
tp1767
a(g1457
S'33014/05'
p1768
tp1769
a(S'10274/08'
p1770
S'21887/93'
p1771
tp1772
a(S'25654/08'
p1773
S'34320/96'
p1774
tp1775
a(S'54822/00'
p1776
S'58104/08'
p1777
tp1778
a(S'73988/01'
p1779
S'11215/02'
p1780
tp1781
a(S'44713/98'
p1782
S'36989/05'
p1783
tp1784
a(S'40887/98'
p1785
S'38570/05'
p1786
tp1787
a(S'49636/99'
p1788
g1651
tp1789
a(S'287/03'
p1790
S'29846/05'
p1791
tp1792
a(S'22535/93'
p1793
S'5384/03'
p1794
tp1795
a(S'44726/04'
p1796
S'39013/05'
p1797
tp1798
a(S'11826/85'
p1799
S'13007/02'
p1800
tp1801
a(g1294
S'42310/04'
p1802
tp1803
a(S'28901/95'
p1804
S'23667/06'
p1805
tp1806
a(S'74096/01'
p1807
S'69481/01'
p1808
tp1809
a(S'40799/06'
p1810
S'275/02'
p1811
tp1812
a(S'35350/05'
p1813
S'75107/01'
p1814
tp1815
a(S'61651/00'
p1816
S'14853/03'
p1817
tp1818
a(S'26886/02'
p1819
S'15649/05'
p1820
tp1821
a(S'19263/92'
p1822
S'41408/04'
p1823
tp1824
a(S'11039/02'
p1825
S'31549/96'
p1826
tp1827
a(S'9106/80'
p1828
S'26365/05'
p1829
tp1830
a(S'23414/02'
p1831
S'68335/10'
p1832
tp1833
a(S'62552/10'
p1834
S'43382/02'
p1835
tp1836
a(S'65191/01'
p1837
S'37698/97'
p1838
tp1839
a(S'13067/03'
p1840
S'38998/09'
p1841
tp1842
a(S'3475/03'
p1843
S'60115/00'
p1844
tp1845
a(S'609/07'
p1846
S'33004/07'
p1847
tp1848
a(g1601
S'47095/99'
p1849
tp1850
a(S'12325/86'
p1851
S'29192/95'
p1852
tp1853
a(S'33954/05'
p1854
S'13071/06'
p1855
tp1856
a(S'26386/02'
p1857
S'44079/98'
p1858
tp1859
a(S'10523/02'
p1860
S'10017/10'
p1861
tp1862
a(S'5108/02'
p1863
S'13190/87'
p1864
tp1865
a(S'39221/98'
p1866
S'25360/04'
p1867
tp1868
a(S'12325/86'
p1869
S'22592/02'
p1870
tp1871
a(S'45211/99'
p1872
S'15869/02'
p1873
tp1874
a(S'10877/04'
p1875
S'42180/02'
p1876
tp1877
a(S'28971/95'
p1878
S'62506/00'
p1879
tp1880
a(g1575
S'42775/98'
p1881
tp1882
a(S'30452/96'
p1883
S'71243/01'
p1884
tp1885
a(S'14570/89'
p1886
S'47829/99'
p1887
tp1888
a(S'1861/05'
p1889
S'63758/00'
p1890
tp1891
a(S'24951/02'
p1892
g1198
tp1893
a(S'15233/05'
p1894
S'41704/02'
p1895
tp1896
a(S'27996/06'
p1897
S'36772/06'
p1898
tp1899
a(S'19798/04'
p1900
S'29537/95'
p1901
tp1902
a(S'31748/06'
p1903
S'17080/07'
p1904
tp1905
a(S'81099/12'
p1906
S'21638/03'
p1907
tp1908
a(S'1503/02'
p1909
S'20071/07'
p1910
tp1911
a(S'31105/05'
p1912
S'38016/07'
p1913
tp1914
a(S'14934/03'
p1915
S'14338/03'
p1916
tp1917
a(S'39229/03'
p1918
S'47486/07'
p1919
tp1920
a(S'55674/00'
p1921
S'25053/02'
p1922
tp1923
a(S'3305/04'
p1924
S'27049/05'
p1925
tp1926
a(S'40060/08'
p1927
S'68880/01'
p1928
tp1929
a(S'62590/09'
p1930
S'48057/99'
p1931
tp1932
a(S'21313/06'
p1933
S'10486/83'
p1934
tp1935
a(S'43797/98'
p1936
S'39846/98'
p1937
tp1938
a(S'51543/99'
p1939
S'75472/01'
p1940
tp1941
a(S'64752/01'
p1942
S'33795/08'
p1943
tp1944
a(S'7051/06'
p1945
S'19467/07'
p1946
tp1947
a(S'7975/07'
p1948
S'27952/08'
p1949
tp1950
a(S'1409/03'
p1951
S'29979/04'
p1952
tp1953
a(S'14805/02'
p1954
S'44511/04'
p1955
tp1956
a(S'46726/11'
p1957
S'1813/07'
p1958
tp1959
a(S'2040/06'
p1960
S'44068/02'
p1961
tp1962
a(g1904
S'5962/03'
p1963
tp1964
a(S'68448/01'
p1965
S'72683/01'
p1966
tp1967
a(S'18944/02'
p1968
S'50882/99'
p1969
tp1970
a(g1009
S'49198/10'
p1971
tp1972
a(S'35394/97'
p1973
S'15707/10'
p1974
tp1975
a(S'36274/08'
p1976
S'38891/06'
p1977
tp1978
a(S'73547/01'
p1979
S'34539/02'
p1980
tp1981
a(g902
S'13797/02'
p1982
tp1983
a(S'8673/05'
p1984
S'3564/11'
p1985
tp1986
a(S'14704/03'
p1987
S'22277/93'
p1988
tp1989
a(S'58258/09'
p1990
S'27763/05'
p1991
tp1992
a(S'19632/92'
p1993
S'42527/98'
p1994
tp1995
a(S'61998/00'
p1996
S'27061/95'
p1997
tp1998
a(S'29545/06'
p1999
S'58497/00'
p2000
tp2001
a(S'8562/79'
p2002
S'11068/04'
p2003
tp2004
a(S'29182/03'
p2005
S'10597/03'
p2006
tp2007
a(S'54705/08'
p2008
S'73283/01'
p2009
tp2010
a(S'36542/05'
p2011
S'24254/03'
p2012
tp2013
aa(lp2014
S'54178_00'
p2015
aS'69332_01'
p2016
aS'10559_03'
p2017
aS'19567_02'
p2018
aS'20190_92'
p2019
aS'5044_02'
p2020
aS'27798_95'
p2021
aS'22678_93'
p2022
aS'48542_99'
p2023
aS'37444_97'
p2024
aS'30103_02'
p2025
aS'30240_96'
p2026
aS'16328_03'
p2027
aS'74039_01'
p2028
aS'59261_00'
p2029
aS'77545_01'
p2030
aS'62866_00'
p2031
aS'67979_01'
p2032
aS'33274_96'
p2033
aS'7178_03'
p2034
aS'43276_06'
p2035
aS'26803_02'
p2036
aS'39652_98'
p2037
aS'44302_02'
p2038
aS'4451_70'
p2039
aS'16622_05'
p2040
aS'18390_91'
p2041
aS'45783_05'
p2042
aS'28957_95'
p2043
aS'73547_01'
p2044
aS'63758_00'
p2045
aS'25053_02'
p2046
aS'33654_06'
p2047
aS'41391_06'
p2048
aS'29992_05'
p2049
aS'22313_04'
p2050
aS'35354_04'
p2051
aS'19324_02'
p2052
aS'18949_91'
p2053
aS'32734_96'
p2054
aS'42527_98'
p2055
aS'48015_99'
p2056
aS'28901_95'
p2057
aS'38112_04'
p2058
aS'38971_06'
p2059
aS'30042_08'
p2060
aS'3742_02'
p2061
aS'48129_99'
p2062
aS'55531_00'
p2063
aS'71463_01'
p2064
aS'22774_93'
p2065
aS'3840_05'
p2066
aS'71156_01'
p2067
aS'27912_02'
p2068
aS'31423_96'
p2069
aS'26676_06'
p2070
aS'28358_95'
p2071
aS'28954_02'
p2072
aS'37193_08'
p2073
aS'22009_93'
p2074
aS'20372_11'
p2075
aS'75107_01'
p2076
aS'32668_02'
p2077
aS'59548_00'
p2078
aS'1509_02'
p2079
aS'17647_04'
p2080
aS'39748_98'
p2081
aS'65656_11'
p2082
aS'52895_99'
p2083
aS'11870_03'
p2084
aS'43071_06'
p2085
aS'20376_05'
p2086
aS'61222_00'
p2087
aS'28746_03'
p2088
aS'41840_02'
p2089
aS'41510_98'
p2090
aS'9106_80'
p2091
aS'39510_98'
p2092
aS'25580_03'
p2093
aS'9072_02'
p2094
aS'72683_01'
p2095
aS'30616_05'
p2096
aS'24325_03'
p2097
aS'33086_04'
p2098
aS'57049_00'
p2099
aS'29392_95'
p2100
aS'4640_04'
p2101
aS'47628_06'
p2102
aS'44369_02'
p2103
aS'15828_03'
p2104
aS'14326_11'
p2105
aS'17383_90'
p2106
aS'27049_05'
p2107
aS'55299_07'
p2108
aS'48150_11'
p2109
aS'11491_85'
p2110
aS'12806_87'
p2111
aS'38720_03'
p2112
aS'49398_99'
p2113
aS'36552_02'
p2114
aS'41030_02'
p2115
aS'19776_04'
p2116
aS'75139_01'
p2117
aS'19263_92'
p2118
aS'42750_09'
p2119
aS'10842_84'
p2120
aS'27952_08'
p2121
aS'31464_96'
p2122
aS'25003_06'
p2123
aS'55722_00'
p2124
aS'24746_94'
p2125
aS'45223_05'
p2126
aS'21497_93'
p2127
aS'28090_95'
p2128
aS'12144_86'
p2129
aS'43485_02'
p2130
aS'14450_02'
p2131
aS'15809_02'
p2132
aS'20310_02'
p2133
aS'5947_72'
p2134
aS'77519_01'
p2135
aS'23531_94'
p2136
aS'29808_02'
p2137
aS'31864_06'
p2138
aS'47023_99'
p2139
aS'23657_94'
p2140
aS'17327_02'
p2141
aS'39315_06'
p2142
aS'24550_94'
p2143
aS'4646_02'
p2144
aS'56760_00'
p2145
aS'38460_97'
p2146
aS'24706_02'
p2147
aS'26529_10'
p2148
aS'25360_04'
p2149
aS'21961_93'
p2150
aS'18954_91'
p2151
aS'28648_03'
p2152
aS'12712_02'
p2153
aS'2832_66'
p2154
aS'70494_01'
p2155
aS'22978_05'
p2156
aS'40877_98'
p2157
aS'74727_01'
p2158
aS'2361_05'
p2159
aS'27916_95'
p2160
aS'51543_99'
p2161
aS'43258_98'
p2162
aS'22535_93'
p2163
aS'42775_98'
p2164
aS'74096_01'
p2165
aS'34976_05'
p2166
aS'68880_01'
p2167
aS'33685_05'
p2168
aS'11215_02'
p2169
aS'34983_02'
p2170
aS'25656_94'
p2171
aS'26872_05'
p2172
aS'30979_96'
p2173
aS'24510_06'
p2174
aS'71933_01'
p2175
aS'21689_93'
p2176
aS'13088_09'
p2177
aS'29889_04'
p2178
aS'23818_94'
p2179
aS'56016_00'
p2180
aS'11801_85'
p2181
aS'33294_03'
p2182
aS'42246_02'
p2183
aS'39970_02'
p2184
aS'126_05'
p2185
aS'62506_00'
p2186
aS'22277_93'
p2187
aS'11932_86'
p2188
aS'6563_03'
p2189
aS'53988_07'
p2190
aS'52589_99'
p2191
aS'14396_88'
p2192
aS'60179_09'
p2193
aS'47829_99'
p2194
aS'40905_98'
p2195
aS'44864_98'
p2196
aS'50757_06'
p2197
aS'12380_05'
p2198
aS'31195_96'
p2199
aS'26410_02'
p2200
aS'30873_96'
p2201
aS'34592_97'
p2202
aS'37553_05'
p2203
aS'64927_01'
p2204
aS'53084_99'
p2205
aS'37710_97'
p2206
aS'16530_06'
p2207
aS'56581_00'
p2208
aS'14307_88'
p2209
aS'73604_01'
p2210
aS'23780_08'
p2211
aS'30138_02'
p2212
aS'32964_02'
p2213
aS'11454_85'
p2214
aS'69908_01'
p2215
aS'32558_03'
p2216
aS'39343_98'
p2217
aS'56793_00'
p2218
aS'13541_06'
p2219
aS'30544_96'
p2220
aS'7601_76'
p2221
aS'24951_02'
p2222
aS'20704_92'
p2223
aS'62590_09'
p2224
aS'22070_93'
p2225
aS'62936_00'
p2226
aS'9174_02'
p2227
aS'20882_04'
p2228
aS'7906_77'
p2229
aS'67336_01'
p2230
aS'25753_94'
p2231
aS'8562_79'
p2232
aS'11826_85'
p2233
aS'34684_97'
p2234
aS'34150_04'
p2235
aS'13972_88'
p2236
aS'21593_93'
p2237
aS'17209_02'
p2238
aS'47940_99'
p2239
aS'37345_03'
p2240
aS'1948_04'
p2241
aS'4417_02'
p2242
aS'25052_94'
p2243
aS'31827_96'
p2244
aS'3684_07'
p2245
aS'58104_08'
p2246
aS'10664_05'
p2247
aS'7064_05'
p2248
aS'13425_02'
p2249
aS'13441_87'
p2250
aS'21594_93'
p2251
aS'5124_03'
p2252
aS'31122_05'
p2253
aS'21987_93'
p2254
aS'12033_86'
p2255
aS'15670_04'
p2256
aS'43797_98'
p2257
aS'25843_94'
p2258
aS'307_02'
p2259
aS'32446_96'
p2260
aS'5134_09'
p2261
aS'26433_95'
p2262
aS'66907_01'
p2263
aS'24760_94'
p2264
aS'52690_99'
p2265
aS'28604_03'
p2266
aS'18139_91'
p2267
aS'12583_09'
p2268
aS'12843_87'
p2269
aS'11562_05'
p2270
aS'42703_98'
p2271
aS'23414_02'
p2272
aS'2220_05'
p2273
aS'27295_95'
p2274
aS'12728_87'
p2275
aS'26886_02'
p2276
aS'48242_06'
p2277
aS'5326_04'
p2278
aS'15573_89'
p2279
aS'13616_88'
p2280
aS'20071_07'
p2281
aS'44558_98'
p2282
aS'14647_89'
p2283
aS'21055_09'
p2284
aS'40887_98'
p2285
aS'22603_02'
p2286
aS'9958_04'
p2287
aS'15375_89'
p2288
aS'17303_03'
p2289
aS'3223_07'
p2290
aS'33347_07'
p2291
aS'19632_92'
p2292
aS'37645_97'
p2293
aS'41035_98'
p2294
aS'37251_04'
p2295
aS'44936_07'
p2296
aS'14853_03'
p2297
aS'59498_00'
p2298
aS'23452_94'
p2299
aS'54836_00'
p2300
aS'26307_95'
p2301
aS'57641_00'
p2302
aS'28904_02'
p2303
aS'25706_03'
p2304
aS'50213_08'
p2305
aS'35853_04'
p2306
aS'17869_91'
p2307
aS'15707_10'
p2308
aS'21352_02'
p2309
aS'14139_03'
p2310
aS'17988_02'
p2311
aS'64520_10'
p2312
aS'27996_06'
p2313
aS'33202_96'
p2314
aS'14810_02'
p2315
aS'33549_02'
p2316
aS'25693_94'
p2317
aS'37703_97'
p2318
aS'32092_02'
p2319
aS'17551_02'
p2320
aS'36570_97'
p2321
aS'13343_87'
p2322
aS'74613_01'
p2323
aS'33488_96'
p2324
aS'3305_04'
p2325
aS'73049_01'
p2326
aS'37820_06'
p2327
aS'44511_04'
p2328
aS'26761_95'
p2329
aS'49158_99'
p2330
aS'28523_95'
p2331
aS'13637_03'
p2332
aS'38372_06'
p2333
aS'35760_04'
p2334
aS'25632_02'
p2335
aS'19380_92'
p2336
aS'58590_11'
p2337
aS'19180_03'
p2338
aS'68345_01'
p2339
aS'28488_04'
p2340
aS'19856_04'
p2341
aS'15118_89'
p2342
aS'11944_05'
p2343
aS'34653_04'
p2344
aS'9381_81'
p2345
aS'69519_01'
p2346
aS'26737_95'
p2347
aS'49872_11'
p2348
aS'23865_02'
p2349
aS'34653_08'
p2350
aS'25420_94'
p2351
aS'17912_05'
p2352
aS'31836_04'
p2353
aS'53341_99'
p2354
aS'18877_91'
p2355
aS'44425_08'
p2356
aS'38570_05'
p2357
aS'37374_05'
p2358
aS'58258_09'
p2359
aS'77835_01'
p2360
aS'61651_00'
p2361
aS'17080_07'
p2362
aS'20571_04'
p2363
aS'10465_83'
p2364
aS'40807_07'
p2365
aS'41704_02'
p2366
aS'30686_03'
p2367
aS'13378_05'
p2368
aS'32842_96'
p2369
aS'22600_93'
p2370
aS'4464_70'
p2371
aS'20493_07'
p2372
aS'8978_80'
p2373
aS'28028_95'
p2374
aS'37500_04'
p2375
aS'11612_85'
p2376
aS'13710_88'
p2377
aS'27209_03'
p2378
aS'29182_03'
p2379
aS'14697_07'
p2380
aS'28275_06'
p2381
aS'26436_05'
p2382
aS'27763_05'
p2383
aS'33795_08'
p2384
aS'5515_09'
p2385
aS'17092_04'
p2386
aS'31748_06'
p2387
aS'40984_07'
p2388
aS'3817_07'
p2389
aS'26365_05'
p2390
aS'16474_03'
p2391
aS'287_03'
p2392
aS'22495_93'
p2393
aS'19467_07'
p2394
aS'44962_98'
p2395
aS'3925_05'
p2396
aS'29537_95'
p2397
aS'65191_01'
p2398
aS'4241_03'
p2399
aS'23992_02'
p2400
aS'7821_07'
p2401
aS'19639_92'
p2402
aS'9659_82'
p2403
aS'32981_96'
p2404
aS'20166_92'
p2405
aS'25904_07'
p2406
aS'24478_03'
p2407
aS'4251_02'
p2408
aS'30961_03'
p2409
aS'17674_02'
p2410
aS'5384_03'
p2411
aS'30663_04'
p2412
aS'22014_04'
p2413
aS'20877_04'
p2414
aS'275_02'
p2415
aS'37575_04'
p2416
aS'18375_09'
p2417
aS'33933_05'
p2418
aS'23462_94'
p2419
aS'39958_02'
p2420
aS'8793_79'
p2421
aS'16965_10'
p2422
aS'36813_97'
p2423
aS'60333_00'
p2424
aS'42620_02'
p2425
aS'27568_02'
p2426
aS'8225_78'
p2427
aS'44726_04'
p2428
aS'6924_03'
p2429
aS'6690_02'
p2430
aS'8695_79'
p2431
aS'1005_08'
p2432
aS'27781_95'
p2433
aS'48983_99'
p2434
aS'609_07'
p2435
aS'12463_05'
p2436
aS'21153_02'
p2437
aS'31127_96'
p2438
aS'20745_04'
p2439
aS'33977_96'
p2440
aS'32241_07'
p2441
aS'18990_05'
p2442
aS'39401_04'
p2443
aS'41723_06'
p2444
aS'21906_04'
p2445
aS'28524_95'
p2446
aS'19433_07'
p2447
aS'13440_87'
p2448
aS'27888_04'
p2449
aS'23536_94'
p2450
aS'13026_02'
p2451
aS'24888_94'
p2452
aS'4378_02'
p2453
aS'8398_78'
p2454
aS'1115_02'
p2455
aS'10857_84'
p2456
aS'9464_02'
p2457
aS'32347_02'
p2458
aS'22729_93'
p2459
aS'11800_85'
p2460
aS'25452_03'
p2461
aS'44093_98'
p2462
aS'39846_04'
p2463
aS'21638_03'
p2464
aS'51585_99'
p2465
aS'66460_01'
p2466
aS'27785_95'
p2467
aS'10274_08'
p2468
aS'42606_05'
p2469
aS'24173_06'
p2470
aS'77690_01'
p2471
aS'34215_02'
p2472
aS'15797_89'
p2473
aS'34611_97'
p2474
aS'58497_00'
p2475
aS'20429_02'
p2476
aS'13444_04'
p2477
aS'59502_00'
p2478
aS'24250_11'
p2479
aS'49684_99'
p2480
aS'27295_03'
p2481
aS'11910_85'
p2482
aS'36542_05'
p2483
aS'38998_09'
p2484
aS'15764_89'
p2485
aS'32967_96'
p2486
aS'43589_02'
p2487
aS'75472_01'
p2488
aS'62194_00'
p2489
aS'69756_01'
p2490
aS'57947_00'
p2491
aS'35367_08'
p2492
aS'37616_02'
p2493
aS'10231_02'
p2494
aS'14018_08'
p2495
aS'30997_02'
p2496
aS'65417_01'
p2497
aS'63354_00'
p2498
aS'28309_03'
p2499
aS'50882_99'
p2500
aS'17472_04'
p2501
aS'31443_96'
p2502
aS'44079_98'
p2503
aS'14327_88'
p2504
aS'8992_07'
p2505
aS'10522_83'
p2506
aS'21887_93'
p2507
aS'35677_05'
p2508
aS'4158_05'
p2509
aS'14570_89'
p2510
aS'1448_04'
p2511
aS'28888_02'
p2512
aS'22492_93'
p2513
aS'55408_07'
p2514
aS'19807_92'
p2515
aS'28856_95'
p2516
aS'1409_03'
p2517
aS'37698_97'
p2518
aS'21893_93'
p2519
aS'34481_97'
p2520
aS'41488_98'
p2521
aS'36181_05'
p2522
aS'1503_02'
p2523
aS'43382_02'
p2524
aS'7025_04'
p2525
aS'16621_05'
p2526
aS'31853_96'
p2527
aS'61382_09'
p2528
aS'39690_98'
p2529
aS'74651_01'
p2530
aS'23413_94'
p2531
aS'26772_95'
p2532
aS'30452_96'
p2533
aS'30009_03'
p2534
aS'75618_01'
p2535
aS'46295_99'
p2536
aS'55762_00'
p2537
aS'21454_04'
p2538
aS'45094_06'
p2539
aS'5417_06'
p2540
aS'37598_97'
p2541
aS'37201_97'
p2542
aS'29295_95'
p2543
aS'29192_95'
p2544
aS'58887_00'
p2545
aS'35128_02'
p2546
aS'40799_06'
p2547
aS'12444_05'
p2548
aS'25196_04'
p2549
aS'26261_05'
p2550
aS'22414_93'
p2551
aS'38361_97'
p2552
aS'9118_80'
p2553
aS'29052_03'
p2554
aS'69306_01'
p2555
aS'75529_01'
p2556
aS'34469_05'
p2557
aS'44686_07'
p2558
aS'64752_01'
p2559
aS'74352_11'
p2560
aS'21313_06'
p2561
aS'36772_02'
p2562
aS'29921_96'
p2563
aS'72520_01'
p2564
aS'10486_83'
p2565
aS'37395_97'
p2566
aS'69498_01'
p2567
aS'14518_89'
p2568
aS'18557_06'
p2569
aS'18255_05'
p2570
aS'25181_94'
p2571
aS'74816_01'
p2572
aS'13210_05'
p2573
aS'37019_97'
p2574
aS'13007_02'
p2575
aS'78008_01'
p2576
aS'35605_97'
p2577
aS'54169_00'
p2578
aS'23556_94'
p2579
aS'19558_09'
p2580
aS'34044_96'
p2581
aS'42184_05'
p2582
aS'5953_02'
p2583
aS'33307_02'
p2584
aS'20652_92'
p2585
aS'57448_00'
p2586
aS'22676_93'
p2587
aS'39547_98'
p2588
aS'19776_92'
p2589
aS'18310_06'
p2590
aS'55853_00'
p2591
aS'23379_94'
p2592
aS'16404_03'
p2593
aS'26103_95'
p2594
aS'35349_05'
p2595
aS'29287_02'
p2596
aS'64705_01'
p2597
aS'43622_98'
p2598
aS'56271_00'
p2599
aS'32220_96'
p2600
aS'44068_02'
p2601
aS'33097_96'
p2602
aS'71243_01'
p2603
aS'15576_89'
p2604
aS'27353_95'
p2605
aS'48155_06'
p2606
aS'34438_04'
p2607
aS'11146_11'
p2608
aS'16463_09'
p2609
aS'41228_02'
p2610
aS'14704_03'
p2611
aS'66289_01'
p2612
aS'9186_80'
p2613
aS'33914_02'
p2614
aS'29846_05'
p2615
aS'32559_96'
p2616
aS'29731_96'
p2617
aS'41408_04'
p2618
aS'12868_87'
p2619
aS'37376_05'
p2620
aS'32962_96'
p2621
aS'35350_05'
p2622
aS'26637_95'
p2623
aS'60665_00'
p2624
aS'5310_71'
p2625
aS'21911_03'
p2626
aS'47095_99'
p2627
aS'25498_94'
p2628
aS'13323_02'
p2629
aS'7272_09'
p2630
aS'24959_06'
p2631
aS'67534_01'
p2632
aS'2192_03'
p2633
aS'25803_94'
p2634
aS'61998_00'
p2635
aS'44713_98'
p2636
aS'49198_10'
p2637
aS'13590_88'
p2638
aS'74456_01'
p2639
aS'23806_03'
p2640
aS'50516_99'
p2641
aS'39221_98'
p2642
aS'543_03'
p2643
aS'21040_02'
p2644
aS'23926_02'
p2645
aS'51564_99'
p2646
aS'18944_02'
p2647
aS'9668_06'
p2648
aS'12325_86'
p2649
aS'9286_04'
p2650
aS'38581_97'
p2651
aS'34578_97'
p2652
aS'8130_78'
p2653
aS'12433_86'
p2654
aS'33492_96'
p2655
aS'68448_01'
p2656
aS'31881_96'
p2657
aS'29660_03'
p2658
aS'9990_82'
p2659
aS'52478_99'
p2660
aS'35062_03'
p2661
aS'12919_87'
p2662
aS'14379_88'
p2663
aS'21199_03'
p2664
aS'31247_96'
p2665
aS'36103_04'
p2666
aS'29508_04'
p2667
aS'52812_07'
p2668
aS'23139_07'
p2669
aS'1051_06'
p2670
aS'28883_95'
p2671
aS'27846_05'
p2672
aS'62435_00'
p2673
aS'17748_91'
p2674
aS'14996_05'
p2675
aS'34656_03'
p2676
aS'18535_91'
p2677
aS'73283_01'
p2678
aS'4504_04'
p2679
aS'32455_02'
p2680
aS'12718_87'
p2681
aS'21363_93'
p2682
aS'14934_03'
p2683
aS'61967_00'
p2684
aS'33071_96'
p2685
aS'33218_96'
p2686
aS'9271_07'
p2687
aS'10877_04'
p2688
aS'49636_99'
p2689
aS'1926_03'
p2690
aS'23667_06'
p2691
aS'31556_03'
p2692
aS'37453_97'
p2693
aS'28973_11'
p2694
aS'25444_94'
p2695
aS'6282_06'
p2696
aS'39206_07'
p2697
aS'20824_09'
p2698
aS'28213_95'
p2699
aS'17549_90'
p2700
aS'20315_04'
p2701
aS'25116_94'
p2702
aS'20824_02'
p2703
aS'38794_97'
p2704
aS'34539_02'
p2705
aS'50385_99'
p2706
aS'2747_02'
p2707
aS'13067_03'
p2708
aS'23459_94'
p2709
aS'40892_98'
p2710
aS'35072_97'
p2711
aS'22666_08'
p2712
aS'40962_04'
p2713
aS'28359_05'
p2714
aS'11830_03'
p2715
aS'5193_09'
p2716
aS'21894_93'
p2717
aS'29784_07'
p2718
aS'3932_02'
p2719
aS'43352_98'
p2720
aS'34211_04'
p2721
aS'11581_85'
p2722
aS'1813_07'
p2723
aS'32662_96'
p2724
aS'31725_96'
p2725
aS'48684_99'
p2726
aS'29545_06'
p2727
aS'45214_99'
p2728
aS'5108_02'
p2729
aS'2295_06'
p2730
aS'23763_94'
p2731
aS'36391_02'
p2732
aS'20688_04'
p2733
aS'13467_05'
p2734
aS'32940_08'
p2735
aS'21986_93'
p2736
aS'12316_07'
p2737
aS'19134_05'
p2738
aS'26692_05'
p2739
aS'8544_79'
p2740
aS'31107_96'
p2741
aS'18378_03'
p2742
aS'35527_04'
p2743
aS'41833_04'
p2744
aS'29699_96'
p2745
aS'58971_00'
p2746
aS'28135_95'
p2747
aS'52806_09'
p2748
aS'2040_06'
p2749
aS'45566_08'
p2750
aS'53466_07'
p2751
aS'50034_99'
p2752
aS'13418_03'
p2753
aS'60115_00'
p2754
aS'8721_05'
p2755
aS'25657_94'
p2756
aS'16999_04'
p2757
aS'9120_80'
p2758
aS'54705_08'
p2759
aS'28025_03'
p2760
aS'20390_92'
p2761
aS'54822_00'
p2762
aS'52782_99'
p2763
aS'55674_00'
p2764
aS'34720_97'
p2765
aS'22083_93'
p2766
aS'20524_92'
p2767
aS'29459_10'
p2768
aS'27229_95'
p2769
aS'37046_03'
p2770
aS'10017_10'
p2771
aS'39272_98'
p2772
aS'39013_05'
p2773
aS'12850_87'
p2774
aS'10597_03'
p2775
aS'43393_98'
p2776
aS'29979_04'
p2777
aS'31549_96'
p2778
aS'19382_92'
p2779
aS'29183_95'
p2780
aS'17788_02'
p2781
aS'14338_03'
p2782
aS'63767_00'
p2783
aS'45712_99'
p2784
aS'36989_05'
p2785
aS'19798_04'
p2786
aS'26760_95'
p2787
aS'50326_99'
p2788
aS'43482_02'
p2789
aS'23960_02'
p2790
aS'34630_07'
p2791
aS'9248_81'
p2792
aS'7299_75'
p2793
aS'33732_96'
p2794
aS'32542_96'
p2795
aS'22373_04'
p2796
aS'53924_00'
p2797
aS'48095_99'
p2798
aS'46720_99'
p2799
aS'18984_91'
p2800
aS'39424_02'
p2801
aS'40154_98'
p2802
aS'68335_10'
p2803
aS'61260_08'
p2804
aS'22592_02'
p2805
aS'36258_97'
p2806
aS'31438_06'
p2807
aS'7975_07'
p2808
aS'13146_02'
p2809
aS'47486_07'
p2810
aS'45289_99'
p2811
aS'69481_01'
p2812
aS'12145_86'
p2813
aS'46726_11'
p2814
aS'3475_03'
p2815
aS'33066_04'
p2816
aS'3906_06'
p2817
aS'39188_04'
p2818
aS'50360_08'
p2819
aS'34120_96'
p2820
aS'33014_05'
p2821
aS'4171_03'
p2822
aS'51545_99'
p2823
aS'40035_98'
p2824
aS'7054_10'
p2825
aS'8673_05'
p2826
aS'36274_08'
p2827
aS'13099_04'
p2828
aS'31871_96'
p2829
aS'75975_01'
p2830
aS'12398_86'
p2831
aS'14838_89'
p2832
aS'35394_97'
p2833
aS'21592_93'
p2834
aS'38891_06'
p2835
aS'24541_94'
p2836
aS'34151_04'
p2837
aS'41775_06'
p2838
aS'59653_00'
p2839
aS'30633_06'
p2840
aS'38016_07'
p2841
aS'43854_98'
p2842
aS'11855_85'
p2843
aS'21353_93'
p2844
aS'24295_94'
p2845
aS'37778_04'
p2846
aS'42180_02'
p2847
aS'37439_97'
p2848
aS'11891_85'
p2849
aS'37763_04'
p2850
aS'38523_02'
p2851
aS'37801_97'
p2852
aS'19075_91'
p2853
aS'34320_96'
p2854
aS'32492_96'
p2855
aS'14038_88'
p2856
aS'17584_04'
p2857
aS'29226_03'
p2858
aS'9562_81'
p2859
aS'37700_05'
p2860
aS'45097_05'
p2861
aS'63378_00'
p2862
aS'12312_05'
p2863
aS'11039_02'
p2864
aS'45211_99'
p2865
aS'39810_98'
p2866
aS'67793_10'
p2867
aS'22107_93'
p2868
aS'16982_05'
p2869
aS'31926_96'
p2870
aS'63566_00'
p2871
aS'20134_05'
p2872
aS'35485_05'
p2873
aS'71912_01'
p2874
aS'60750_00'
p2875
aS'5952_07'
p2876
aS'8345_05'
p2877
aS'60132_00'
p2878
aS'42310_04'
p2879
aS'6301_73'
p2880
aS'11068_04'
p2881
aS'6356_04'
p2882
aS'12106_09'
p2883
aS'30210_96'
p2884
aS'20937_07'
p2885
aS'67039_01'
p2886
aS'9261_02'
p2887
aS'49747_11'
p2888
aS'38736_04'
p2889
aS'21462_04'
p2890
aS'33132_02'
p2891
aS'15869_02'
p2892
aS'26124_03'
p2893
aS'57176_00'
p2894
aS'59450_00'
p2895
aS'37095_97'
p2896
aS'5718_10'
p2897
aS'75888_01'
p2898
aS'1371_03'
p2899
aS'39822_07'
p2900
aS'56698_00'
p2901
aS'40132_02'
p2902
aS'30742_03'
p2903
aS'22947_93'
p2904
aS'19823_92'
p2905
aS'20303_07'
p2906
aS'24735_94'
p2907
aS'28940_95'
p2908
aS'74550_12'
p2909
aS'71551_01'
p2910
aS'20727_04'
p2911
aS'20161_06'
p2912
aS'15649_05'
p2913
aS'16969_90'
p2914
aS'24254_03'
p2915
aS'42083_98'
p2916
aS'48191_99'
p2917
aS'7436_02'
p2918
aS'43402_02'
p2919
aS'14226_04'
p2920
aS'67335_01'
p2921
aS'46221_99'
p2922
aS'6847_02'
p2923
aS'1377_04'
p2924
aS'30342_96'
p2925
aS'42281_02'
p2926
aS'29202_95'
p2927
aS'35014_97'
p2928
aS'41902_04'
p2929
aS'33004_07'
p2930
aS'61391_00'
p2931
aS'10174_02'
p2932
aS'27225_05'
p2933
aS'13190_87'
p2934
aS'32644_96'
p2935
aS'18731_91'
p2936
aS'26386_02'
p2937
aS'62208_00'
p2938
aS'10947_04'
p2939
aS'22880_93'
p2940
aS'7367_76'
p2941
aS'56717_00'
p2942
aS'11209_84'
p2943
aS'40518_98'
p2944
aS'36376_04'
p2945
aS'36760_06'
p2946
aS'54810_00'
p2947
aS'17038_04'
p2948
aS'39229_03'
p2949
aS'74266_01'
p2950
aS'4922_04'
p2951
aS'25965_04'
p2952
aS'34960_04'
p2953
aS'42252_02'
p2954
aS'34155_96'
p2955
aS'17419_90'
p2956
aS'42343_98'
p2957
aS'7051_06'
p2958
aS'49608_08'
p2959
aS'44286_06'
p2960
aS'29439_02'
p2961
aS'37112_97'
p2962
aS'35052_04'
p2963
aS'10890_84'
p2964
aS'45744_08'
p2965
aS'8347_05'
p2966
aS'10496_83'
p2967
aS'44521_04'
p2968
aS'48939_99'
p2969
aS'48297_99'
p2970
aS'12598_86'
p2971
aS'8805_79'
p2972
aS'81099_12'
p2973
aS'11548_04'
p2974
aS'14077_05'
p2975
aS'62552_10'
p2976
aS'39050_97'
p2977
aS'10563_83'
p2978
aS'33505_96'
p2979
aS'13071_06'
p2980
aS'39311_05'
p2981
aS'28114_95'
p2982
aS'6011_10'
p2983
aS'2312_08'
p2984
aS'10523_02'
p2985
aS'17851_91'
p2986
aS'6833_74'
p2987
aS'52515_99'
p2988
aS'24528_02'
p2989
aS'40453_98'
p2990
aS'61019_00'
p2991
aS'47148_99'
p2992
aS'28971_95'
p2993
aS'39846_98'
p2994
aS'33706_05'
p2995
aS'31320_05'
p2996
aS'3344_04'
p2997
aS'28394_95'
p2998
aS'75697_01'
p2999
aS'2737_04'
p3000
aS'39437_98'
p3001
aS'75705_01'
p3002
aS'59601_09'
p3003
aS'19813_03'
p3004
aS'66083_01'
p3005
aS'13163_87'
p3006
aS'72286_01'
p3007
aS'9749_82'
p3008
aS'24720_04'
p3009
aS'9580_81'
p3010
aS'15722_05'
p3011
aS'32984_96'
p3012
aS'27061_95'
p3013
aS'32541_96'
p3014
aS'33734_06'
p3015
aS'51837_99'
p3016
aS'18748_91'
p3017
aS'18990_91'
p3018
aS'5962_03'
p3019
aS'75098_01'
p3020
aS'14805_02'
p3021
aS'10249_03'
p3022
aS'39778_07'
p3023
aS'33954_05'
p3024
aS'20999_05'
p3025
aS'71503_01'
p3026
aS'27915_95'
p3027
aS'27685_04'
p3028
aS'1586_05'
p3029
aS'2954_07'
p3030
aS'10398_04'
p3031
aS'9815_82'
p3032
aS'75695_01'
p3033
aS'13797_02'
p3034
aS'63181_00'
p3035
aS'40653_98'
p3036
aS'14448_88'
p3037
aS'2914_02'
p3038
aS'31105_05'
p3039
aS'2202_05'
p3040
aS'36772_06'
p3041
aS'8658_79'
p3042
aS'7525_76'
p3043
aS'20348_92'
p3044
aS'17862_91'
p3045
aS'2895_07'
p3046
aS'48990_99'
p3047
aS'42320_98'
p3048
aS'47804_99'
p3049
aS'26828_06'
p3050
aS'15145_05'
p3051
aS'73988_01'
p3052
aS'32577_96'
p3053
aS'48206_99'
p3054
aS'1861_05'
p3055
aS'19160_91'
p3056
aS'30049_02'
p3057
aS'88_02'
p3058
aS'48057_99'
p3059
aS'53371_99'
p3060
aS'2393_05'
p3061
aS'25500_03'
p3062
aS'46477_99'
p3063
aS'27004_06'
p3064
aS'19601_92'
p3065
aS'21880_03'
p3066
aS'16073_07'
p3067
aS'36035_04'
p3068
aS'46468_06'
p3069
aS'75038_01'
p3070
aS'3564_11'
p3071
aS'52442_09'
p3072
aS'18527_02'
p3073
aS'25654_08'
p3074
aS'37463_04'
p3075
aS'27183_04'
p3076
aS'64098_00'
p3077
aS'24755_94'
p3078
aS'39597_98'
p3079
aS'19359_04'
p3080
aS'28212_95'
p3081
aS'214_56'
p3082
aS'17008_07'
p3083
aS'5029_71'
p3084
aS'15825_06'
p3085
aS'9006_80'
p3086
aS'26124_02'
p3087
aS'60776_00'
p3088
aS'75617_01'
p3089
aS'20972_92'
p3090
aS'39594_98'
p3091
aS'9787_82'
p3092
aS'3989_07'
p3093
aS'19589_02'
p3094
aS'7151_75'
p3095
aS'21417_04'
p3096
aS'32772_02'
p3097
aS'15233_05'
p3098
aS'17440_90'
p3099
aS'60660_00'
p3100
aS'40060_08'
p3101
aS'57942_00'
p3102
aS'12744_87'
p3103
aS'23032_02'
p3104
aS'63134_00'
p3105
aS'24023_06'
p3106
aS'6372_06'
p3107
aS'67149_01'
p3108
aS'30255_09'
p3109
aS'23287_05'
p3110
aS'53943_07'
p3111
aS'77649_01'
p3112
aS'15473_89'
p3113
aS'45963_99'
p3114
aS'8990_80'
p3115
aS'15917_89'
p3116
aS'29334_06'
p3117
aa(lp3118
S'../data/echr-copy-1/54178_00/jud_en/20040923/001-66699fulltext_nocitations.txt'
p3119
aS'../data/echr-copy-1/69332_01/jud_en/20050721/001-69794fulltext_nocitations.txt'
p3120
aS'../data/echr-copy-1/10559_03/jud_en/20060810/001-76727fulltext_nocitations.txt'
p3121
aS'../data/echr-copy-1/19567_02/jud_en/20061102/001-77825fulltext_nocitations.txt'
p3122
aS'../data/echr-copy-1/20190_92/jud_en/19951122/001-57955fulltext_nocitations.txt'
p3123
aS'../data/echr-copy-1/5044_02/jud_en/20060601/001-75579fulltext_nocitations.txt'
p3124
aS'../data/echr-copy-1/27798_95/jud_en/20000216/001-58497fulltext_nocitations.txt'
p3125
aS'../data/echr-copy-1/22678_93/jud_en/19980609/001-58197fulltext_nocitations.txt'
p3126
aS'../data/echr-copy-1/48542_99/jud_en/20050623/001-69469fulltext_nocitations.txt'
p3127
aS'../data/echr-copy-1/37444_97/jud_en/20051011/001-70520fulltext_nocitations.txt'
p3128
aS'../data/echr-copy-1/30103_02/jud_en/20041109/001-67350fulltext_nocitations.txt'
p3129
aS'../data/echr-copy-1/30240_96/jud_en/19970502/001-58035fulltext_nocitations.txt'
p3130
aS'../data/echr-copy-1/16328_03/jud_en/20081106/001-89429fulltext_nocitations.txt'
p3131
aS'../data/echr-copy-1/74039_01/jud_en/20070327/001-79914fulltext_nocitations.txt'
p3132
aS'../data/echr-copy-1/59261_00/jud_en/20060309/001-72700fulltext_nocitations.txt'
p3133
aS'../data/echr-copy-1/77545_01/jud_en/20060309/001-72716fulltext_nocitations.txt'
p3134
aS'../data/echr-copy-1/62866_00/jud_en/20070628/001-81325fulltext_nocitations.txt'
p3135
aS'../data/echr-copy-1/67979_01/jud_en/20050322/001-68582fulltext_nocitations.txt'
p3136
aS'../data/echr-copy-1/33274_96/jud_en/20000620/001-58838fulltext_nocitations.txt'
p3137
aS'../data/echr-copy-1/7178_03/jud_en/20080515/001-86218fulltext_nocitations.txt'
p3138
aS'../data/echr-copy-1/43276_06/jud_en/20090129/001-91026fulltext_nocitations.txt'
p3139
aS'../data/echr-copy-1/26803_02/jud_en/20080131/001-84819fulltext_nocitations.txt'
p3140
aS'../data/echr-copy-1/39652_98/jud_en/20001005/001-58847fulltext_nocitations.txt'
p3141
aS'../data/echr-copy-1/44302_02/jud_en/20070830/001-82172fulltext_nocitations.txt'
p3142
aS'../data/echr-copy-1/4451_70/jud_en/19750221/001-57496fulltext_nocitations.txt'
p3143
aS'../data/echr-copy-1/16622_05/jud_en/20100527/001-98882fulltext_nocitations.txt'
p3144
aS'../data/echr-copy-1/18390_91/jud_en/19941209/001-57909fulltext_nocitations.txt'
p3145
aS'../data/echr-copy-1/45783_05/jud_en/20101021/001-101206fulltext_nocitations.txt'
p3146
aS'../data/echr-copy-1/28957_95/jud_en/20020711/001-60596fulltext_nocitations.txt'
p3147
aS'../data/echr-copy-1/73547_01/jud_en/20050726/001-69898fulltext_nocitations.txt'
p3148
aS'../data/echr-copy-1/63758_00/jud_en/20070605/001-80869fulltext_nocitations.txt'
p3149
aS'../data/echr-copy-1/25053_02/jud_en/20060413/001-73264fulltext_nocitations.txt'
p3150
aS'../data/echr-copy-1/33654_06/jud_en/20080722/001-87745fulltext_nocitations.txt'
p3151
aS'../data/echr-copy-1/41391_06/jud_en/20130418/001-118590fulltext_nocitations.txt'
p3152
aS'../data/echr-copy-1/29992_05/jud_en/20130418/001-118587fulltext_nocitations.txt'
p3153
aS'../data/echr-copy-1/22313_04/jud_en/20101028/001-101321fulltext_nocitations.txt'
p3154
aS'../data/echr-copy-1/35354_04/jud_en/20080410/001-85831fulltext_nocitations.txt'
p3155
aS'../data/echr-copy-1/19324_02/jud_en/20090330/001-91940fulltext_nocitations.txt'
p3156
aS'../data/echr-copy-1/18949_91/jud_en/19941028/001-57901fulltext_nocitations.txt'
p3157
aS'../data/echr-copy-1/32734_96/jud_en/20001221/001-59101fulltext_nocitations.txt'
p3158
aS'../data/echr-copy-1/42527_98/jud_en/20010712/001-59591fulltext_nocitations.txt'
p3159
aS'../data/echr-copy-1/48015_99/jud_en/20030612/001-61134fulltext_nocitations.txt'
p3160
aS'../data/echr-copy-1/28901_95/jud_en/20000216/001-58496fulltext_nocitations.txt'
p3161
aS'../data/echr-copy-1/38112_04/jud_en/20101021/001-101195fulltext_nocitations.txt'
p3162
aS'../data/echr-copy-1/38971_06/jud_en/20071025/001-82991fulltext_nocitations.txt'
p3163
aS'../data/echr-copy-1/30042_08/jud_en/20110607/001-104963fulltext_nocitations.txt'
p3164
aS'../data/echr-copy-1/3742_02/jud_en/20041216/001-67778fulltext_nocitations.txt'
p3165
aS'../data/echr-copy-1/48129_99/jud_en/20031202/001-61487fulltext_nocitations.txt'
p3166
aS'../data/echr-copy-1/55531_00/jud_en/20070118/001-79141fulltext_nocitations.txt'
p3167
aS'../data/echr-copy-1/71463_01/jud_en/20090409/001-92142fulltext_nocitations.txt'
p3168
aS'../data/echr-copy-1/22774_93/jud_en/19990728/001-58292fulltext_nocitations.txt'
p3169
aS'../data/echr-copy-1/3840_05/jud_en/20081021/001-89169fulltext_nocitations.txt'
p3170
aS'../data/echr-copy-1/71156_01/jud_en/20070503/001-80395fulltext_nocitations.txt'
p3171
aS'../data/echr-copy-1/27912_02/jud_en/20091103/001-95564fulltext_nocitations.txt'
p3172
aS'../data/echr-copy-1/31423_96/jud_en/20000404/001-58541fulltext_nocitations.txt'
p3173
aS'../data/echr-copy-1/26676_06/jud_en/20130411/001-118389fulltext_nocitations.txt'
p3174
aS'../data/echr-copy-1/28358_95/jud_en/20000328/001-58525fulltext_nocitations.txt'
p3175
aS'../data/echr-copy-1/28954_02/jud_en/20050113/001-67948fulltext_nocitations.txt'
p3176
aS'../data/echr-copy-1/37193_08/jud_en/20110524/001-104851fulltext_nocitations.txt'
p3177
aS'../data/echr-copy-1/22009_93/jud_en/19970225/001-58033fulltext_nocitations.txt'
p3178
aS'../data/echr-copy-1/20372_11/jud_en/20130411/001-118393fulltext_nocitations.txt'
p3179
aS'../data/echr-copy-1/75107_01/jud_en/20061212/001-78435fulltext_nocitations.txt'
p3180
aS'../data/echr-copy-1/32668_02/jud_en/20070308/001-79741fulltext_nocitations.txt'
p3181
aS'../data/echr-copy-1/59548_00/jud_en/20080117/001-84438fulltext_nocitations.txt'
p3182
aS'../data/echr-copy-1/1509_02/jud_en/20070222/001-79564fulltext_nocitations.txt'
p3183
aS'../data/echr-copy-1/17647_04/jud_en/20080717/001-87520fulltext_nocitations.txt'
p3184
aS'../data/echr-copy-1/39748_98/jud_en/20040217/001-61638fulltext_nocitations.txt'
p3185
aS'../data/echr-copy-1/65656_11/jud_en/20130620/001-121828fulltext_nocitations.txt'
p3186
aS'../data/echr-copy-1/52895_99/jud_en/20060202/001-72255fulltext_nocitations.txt'
p3187
aS'../data/echr-copy-1/11870_03/jud_en/20100211/001-97218fulltext_nocitations.txt'
p3188
aS'../data/echr-copy-1/43071_06/jud_en/20120626/001-111586fulltext_nocitations.txt'
p3189
aS'../data/echr-copy-1/20376_05/jud_en/20120117/001-108680fulltext_nocitations.txt'
p3190
aS'../data/echr-copy-1/61222_00/jud_en/20090113/001-90571fulltext_nocitations.txt'
p3191
aS'../data/echr-copy-1/28746_03/jud_en/20070712/001-81637fulltext_nocitations.txt'
p3192
aS'../data/echr-copy-1/41840_02/jud_en/20101007/001-100791fulltext_nocitations.txt'
p3193
aS'../data/echr-copy-1/41510_98/jud_en/20030306/001-60975fulltext_nocitations.txt'
p3194
aS'../data/echr-copy-1/9106_80/jud_en/19880627/001-57444fulltext_nocitations.txt'
p3195
aS'../data/echr-copy-1/39510_98/jud_en/20060620/001-75888fulltext_nocitations.txt'
p3196
aS'../data/echr-copy-1/25580_03/jud_en/20090108/001-90457fulltext_nocitations.txt'
p3197
aS'../data/echr-copy-1/9072_02/jud_en/20111129/001-107627fulltext_nocitations.txt'
p3198
aS'../data/echr-copy-1/72683_01/jud_en/20070731/001-82036fulltext_nocitations.txt'
p3199
aS'../data/echr-copy-1/30616_05/jud_en/20080612/001-86953fulltext_nocitations.txt'
p3200
aS'../data/echr-copy-1/24325_03/jud_en/20090709/001-93500fulltext_nocitations.txt'
p3201
aS'../data/echr-copy-1/33086_04/jud_en/20080918/001-88393fulltext_nocitations.txt'
p3202
aS'../data/echr-copy-1/57049_00/jud_en/20070215/001-79470fulltext_nocitations.txt'
p3203
aS'../data/echr-copy-1/29392_95/jud_en/20010510/001-59455fulltext_nocitations.txt'
p3204
aS'../data/echr-copy-1/4640_04/jud_en/20100218/001-97359fulltext_nocitations.txt'
p3205
aS'../data/echr-copy-1/47628_06/jud_en/20090113/001-90579fulltext_nocitations.txt'
p3206
aS'../data/echr-copy-1/44369_02/jud_en/20090120/001-90722fulltext_nocitations.txt'
p3207
aS'../data/echr-copy-1/15828_03/jud_en/20090317/001-91777fulltext_nocitations.txt'
p3208
aS'../data/echr-copy-1/14326_11/jud_en/20130618/001-120961fulltext_nocitations.txt'
p3209
aS'../data/echr-copy-1/17383_90/jud_en/19960807/001-58059fulltext_nocitations.txt'
p3210
aS'../data/echr-copy-1/27049_05/jud_en/20080925/001-88468fulltext_nocitations.txt'
p3211
aS'../data/echr-copy-1/55299_07/jud_en/20131219/001-139485fulltext_nocitations.txt'
p3212
aS'../data/echr-copy-1/48150_11/jud_en/20131022/001-127125fulltext_nocitations.txt'
p3213
aS'../data/echr-copy-1/11491_85/jud_en/19930210/001-57818fulltext_nocitations.txt'
p3214
aS'../data/echr-copy-1/12806_87/jud_en/19931026/001-57860fulltext_nocitations.txt'
p3215
aS'../data/echr-copy-1/38720_03/jud_en/20070405/001-80047fulltext_nocitations.txt'
p3216
aS'../data/echr-copy-1/49398_99/jud_en/20050721/001-69774fulltext_nocitations.txt'
p3217
aS'../data/echr-copy-1/36552_02/jud_en/20100518/001-98537fulltext_nocitations.txt'
p3218
aS'../data/echr-copy-1/41030_02/jud_en/20051129/001-71333fulltext_nocitations.txt'
p3219
aS'../data/echr-copy-1/19776_04/jud_en/20110614/001-105102fulltext_nocitations.txt'
p3220
aS'../data/echr-copy-1/75139_01/jud_en/20040304/001-61653fulltext_nocitations.txt'
p3221
aS'../data/echr-copy-1/19263_92/jud_en/19970709/001-58034fulltext_nocitations.txt'
p3222
aS'../data/echr-copy-1/42750_09/jud_en/20131021/001-127697fulltext_nocitations.txt'
p3223
aS'../data/echr-copy-1/10842_84/jud_en/19891025/001-57423fulltext_nocitations.txt'
p3224
aS'../data/echr-copy-1/27952_08/jud_en/20110208/001-103323fulltext_nocitations.txt'
p3225
aS'../data/echr-copy-1/31464_96/jud_en/19990804/001-58290fulltext_nocitations.txt'
p3226
aS'../data/echr-copy-1/25003_06/jud_en/20091210/001-96130fulltext_nocitations.txt'
p3227
aS'../data/echr-copy-1/55722_00/jud_en/20090212/001-91310fulltext_nocitations.txt'
p3228
aS'../data/echr-copy-1/24746_94/jud_en/20010504/001-59450fulltext_nocitations.txt'
p3229
aS'../data/echr-copy-1/45223_05/jud_en/20070920/001-82338fulltext_nocitations.txt'
p3230
aS'../data/echr-copy-1/21497_93/jud_en/19970318/001-58023fulltext_nocitations.txt'
p3231
aS'../data/echr-copy-1/28090_95/jud_en/19981028/001-58260fulltext_nocitations.txt'
p3232
aS'../data/echr-copy-1/12144_86/jud_en/19910628/001-57707fulltext_nocitations.txt'
p3233
aS'../data/echr-copy-1/43485_02/jud_en/20061207/001-78383fulltext_nocitations.txt'
p3234
aS'../data/echr-copy-1/14450_02/jud_en/20061219/001-78580fulltext_nocitations.txt'
p3235
aS'../data/echr-copy-1/15809_02/jud_en/20070629/001-81359fulltext_nocitations.txt'
p3236
aS'../data/echr-copy-1/20310_02/jud_en/20090331/001-91927fulltext_nocitations.txt'
p3237
aS'../data/echr-copy-1/5947_72/jud_en/19831024/001-57576fulltext_nocitations.txt'
p3238
aS'../data/echr-copy-1/77519_01/jud_en/20060601/001-75575fulltext_nocitations.txt'
p3239
aS'../data/echr-copy-1/23531_94/jud_en/20000613/001-58901fulltext_nocitations.txt'
p3240
aS'../data/echr-copy-1/29808_02/jud_en/20100126/001-96921fulltext_nocitations.txt'
p3241
aS'../data/echr-copy-1/31864_06/jud_en/20130122/001-116029fulltext_nocitations.txt'
p3242
aS'../data/echr-copy-1/47023_99/jud_en/20011031/001-59869fulltext_nocitations.txt'
p3243
aS'../data/echr-copy-1/23657_94/jud_en/19990708/001-58282fulltext_nocitations.txt'
p3244
aS'../data/echr-copy-1/17327_02/jud_en/20080515/001-86292fulltext_nocitations.txt'
p3245
aS'../data/echr-copy-1/39315_06/jud_en/20121122/001-114439fulltext_nocitations.txt'
p3246
aS'../data/echr-copy-1/24550_94/jud_en/19980421/001-58155fulltext_nocitations.txt'
p3247
aS'../data/echr-copy-1/4646_02/jud_en/20080108/001-84259fulltext_nocitations.txt'
p3248
aS'../data/echr-copy-1/56760_00/jud_en/20070227/001-79602fulltext_nocitations.txt'
p3249
aS'../data/echr-copy-1/38460_97/jud_en/20010111/001-59125fulltext_nocitations.txt'
p3250
aS'../data/echr-copy-1/24706_02/jud_en/20060704/001-76177fulltext_nocitations.txt'
p3251
aS'../data/echr-copy-1/26529_10/jud_en/20120503/001-110709fulltext_nocitations.txt'
p3252
aS'../data/echr-copy-1/25360_04/jud_en/20121002/001-113636fulltext_nocitations.txt'
p3253
aS'../data/echr-copy-1/21961_93/jud_en/19980522/001-58170fulltext_nocitations.txt'
p3254
aS'../data/echr-copy-1/18954_91/jud_en/19971125/001-58115fulltext_nocitations.txt'
p3255
aS'../data/echr-copy-1/28648_03/jud_en/20090319/001-91786fulltext_nocitations.txt'
p3256
aS'../data/echr-copy-1/12712_02/jud_en/20080703/001-87350fulltext_nocitations.txt'
p3257
aS'../data/echr-copy-1/2832_66/jud_en/19720310/001-57607fulltext_nocitations.txt'
p3258
aS'../data/echr-copy-1/70494_01/jud_en/20080722/001-87577fulltext_nocitations.txt'
p3259
aS'../data/echr-copy-1/22978_05/jud_en/20100601/001-99015fulltext_nocitations.txt'
p3260
aS'../data/echr-copy-1/40877_98/jud_en/20030130/001-60913fulltext_nocitations.txt'
p3261
aS'../data/echr-copy-1/74727_01/jud_en/20050616/001-69401fulltext_nocitations.txt'
p3262
aS'../data/echr-copy-1/2361_05/jud_en/20080923/001-88554fulltext_nocitations.txt'
p3263
aS'../data/echr-copy-1/27916_95/jud_en/19981030/001-58265fulltext_nocitations.txt'
p3264
aS'../data/echr-copy-1/51543_99/jud_en/20050329/001-68646fulltext_nocitations.txt'
p3265
aS'../data/echr-copy-1/43258_98/jud_en/20000711/001-58899fulltext_nocitations.txt'
p3266
aS'../data/echr-copy-1/22535_93/jud_en/20000328/001-58523fulltext_nocitations.txt'
p3267
aS'../data/echr-copy-1/42775_98/jud_en/20031218/001-61556fulltext_nocitations.txt'
p3268
aS'../data/echr-copy-1/74096_01/jud_en/20070906/001-82223fulltext_nocitations.txt'
p3269
aS'../data/echr-copy-1/34976_05/jud_en/20120626/001-111584fulltext_nocitations.txt'
p3270
aS'../data/echr-copy-1/68880_01/jud_en/20040921/001-66642fulltext_nocitations.txt'
p3271
aS'../data/echr-copy-1/33685_05/jud_en/20070201/001-79316fulltext_nocitations.txt'
p3272
aS'../data/echr-copy-1/11215_02/jud_en/20060718/001-76459fulltext_nocitations.txt'
p3273
aS'../data/echr-copy-1/34983_02/jud_en/20050224/001-68396fulltext_nocitations.txt'
p3274
aS'../data/echr-copy-1/25656_94/jud_en/20020618/001-60509fulltext_nocitations.txt'
p3275
aS'../data/echr-copy-1/26872_05/jud_en/20121023/001-114079fulltext_nocitations.txt'
p3276
aS'../data/echr-copy-1/30979_96/jud_en/20000627/001-58762fulltext_nocitations.txt'
p3277
aS'../data/echr-copy-1/24510_06/jud_en/20130620/001-120967fulltext_nocitations.txt'
p3278
aS'../data/echr-copy-1/71933_01/jud_en/20051213/001-71601fulltext_nocitations.txt'
p3279
aS'../data/echr-copy-1/21689_93/jud_en/20040406/001-61696fulltext_nocitations.txt'
p3280
aS'../data/echr-copy-1/13088_09/jud_en/20130402/001-118479fulltext_nocitations.txt'
p3281
aS'../data/echr-copy-1/29889_04/jud_en/20100114/001-96705fulltext_nocitations.txt'
p3282
aS'../data/echr-copy-1/23818_94/jud_en/19980728/001-58200fulltext_nocitations.txt'
p3283
aS'../data/echr-copy-1/56016_00/jud_en/20070503/001-80384fulltext_nocitations.txt'
p3284
aS'../data/echr-copy-1/11801_85/jud_en/19900424/001-57626fulltext_nocitations.txt'
p3285
aS'../data/echr-copy-1/33294_03/jud_en/20130924/001-126432fulltext_nocitations.txt'
p3286
aS'../data/echr-copy-1/42246_02/jud_en/20060706/001-76270fulltext_nocitations.txt'
p3287
aS'../data/echr-copy-1/39970_02/jud_en/20070726/001-81944fulltext_nocitations.txt'
p3288
aS'../data/echr-copy-1/126_05/jud_en/20120522/001-111044fulltext_nocitations.txt'
p3289
aS'../data/echr-copy-1/62506_00/jud_en/20090609/001-92952fulltext_nocitations.txt'
p3290
aS'../data/echr-copy-1/22277_93/jud_en/20000627/001-58734fulltext_nocitations.txt'
p3291
aS'../data/echr-copy-1/11932_86/jud_en/19900328/001-57624fulltext_nocitations.txt'
p3292
aS'../data/echr-copy-1/6563_03/jud_en/20051004/001-70364fulltext_nocitations.txt'
p3293
aS'../data/echr-copy-1/53988_07/jud_en/20130205/001-116185fulltext_nocitations.txt'
p3294
aS'../data/echr-copy-1/52589_99/jud_en/20081021/001-89118fulltext_nocitations.txt'
p3295
aS'../data/echr-copy-1/14396_88/jud_en/19930224/001-57808fulltext_nocitations.txt'
p3296
aS'../data/echr-copy-1/60179_09/jud_en/20120417/001-110393fulltext_nocitations.txt'
p3297
aS'../data/echr-copy-1/47829_99/jud_en/20040923/001-66687fulltext_nocitations.txt'
p3298
aS'../data/echr-copy-1/40905_98/jud_en/20040608/001-61813fulltext_nocitations.txt'
p3299
aS'../data/echr-copy-1/44864_98/jud_en/20020507/001-60439fulltext_nocitations.txt'
p3300
aS'../data/echr-copy-1/50757_06/jud_en/20130718/001-122426fulltext_nocitations.txt'
p3301
aS'../data/echr-copy-1/12380_05/jud_en/20090219/001-91365fulltext_nocitations.txt'
p3302
aS'../data/echr-copy-1/31195_96/jud_en/19990325/001-58228fulltext_nocitations.txt'
p3303
aS'../data/echr-copy-1/26410_02/jud_en/20061102/001-77817fulltext_nocitations.txt'
p3304
aS'../data/echr-copy-1/30873_96/jud_en/20001221/001-59100fulltext_nocitations.txt'
p3305
aS'../data/echr-copy-1/34592_97/jud_en/20040727/001-61941fulltext_nocitations.txt'
p3306
aS'../data/echr-copy-1/37553_05/jud_en/20131126/001-138556fulltext_nocitations.txt'
p3307
aS'../data/echr-copy-1/64927_01/jud_en/20031216/001-61548fulltext_nocitations.txt'
p3308
aS'../data/echr-copy-1/53084_99/jud_en/20040129/001-61606fulltext_nocitations.txt'
p3309
aS'../data/echr-copy-1/37710_97/jud_en/20010802/001-59625fulltext_nocitations.txt'
p3310
aS'../data/echr-copy-1/16530_06/jud_en/20110308/001-103776fulltext_nocitations.txt'
p3311
aS'../data/echr-copy-1/56581_00/jud_en/20060301/001-72629fulltext_nocitations.txt'
p3312
aS'../data/echr-copy-1/14307_88/jud_en/19930525/001-57827fulltext_nocitations.txt'
p3313
aS'../data/echr-copy-1/73604_01/jud_en/20060921/001-76947fulltext_nocitations.txt'
p3314
aS'../data/echr-copy-1/23780_08/jud_en/20120313/001-109541fulltext_nocitations.txt'
p3315
aS'../data/echr-copy-1/30138_02/jud_en/20070607/001-80958fulltext_nocitations.txt'
p3316
aS'../data/echr-copy-1/32964_02/jud_en/20060427/001-75236fulltext_nocitations.txt'
p3317
aS'../data/echr-copy-1/11454_85/jud_en/19900329/001-57621fulltext_nocitations.txt'
p3318
aS'../data/echr-copy-1/69908_01/jud_en/20070215/001-79411fulltext_nocitations.txt'
p3319
aS'../data/echr-copy-1/32558_03/jud_en/20070612/001-80998fulltext_nocitations.txt'
p3320
aS'../data/echr-copy-1/39343_98/jud_en/20030506/001-61077fulltext_nocitations.txt'
p3321
aS'../data/echr-copy-1/56793_00/jud_en/20060810/001-76694fulltext_nocitations.txt'
p3322
aS'../data/echr-copy-1/13541_06/jud_en/20090319/001-91792fulltext_nocitations.txt'
p3323
aS'../data/echr-copy-1/30544_96/jud_en/19990121/001-58907fulltext_nocitations.txt'
p3324
aS'../data/echr-copy-1/7601_76/jud_en/19821018/001-57604fulltext_nocitations.txt'
p3325
aS'../data/echr-copy-1/24951_02/jud_en/20050922/001-70249fulltext_nocitations.txt'
p3326
aS'../data/echr-copy-1/20704_92/jud_en/19970701/001-58042fulltext_nocitations.txt'
p3327
aS'../data/echr-copy-1/62590_09/jud_en/20130409/001-118337fulltext_nocitations.txt'
p3328
aS'../data/echr-copy-1/22070_93/jud_en/19960424/001-57991fulltext_nocitations.txt'
p3329
aS'../data/echr-copy-1/62936_00/jud_en/20081009/001-88780fulltext_nocitations.txt'
p3330
aS'../data/echr-copy-1/9174_02/jud_en/20080919/001-88429fulltext_nocitations.txt'
p3331
aS'../data/echr-copy-1/20882_04/jud_en/20091222/001-96408fulltext_nocitations.txt'
p3332
aS'../data/echr-copy-1/7906_77/jud_en/19830425/001-57470fulltext_nocitations.txt'
p3333
aS'../data/echr-copy-1/67336_01/jud_en/20090730/001-93854fulltext_nocitations.txt'
p3334
aS'../data/echr-copy-1/25753_94/jud_en/20020711/001-60604fulltext_nocitations.txt'
p3335
aS'../data/echr-copy-1/8562_79/jud_en/19870727/001-57485fulltext_nocitations.txt'
p3336
aS'../data/echr-copy-1/11826_85/jud_en/19911029/001-57701fulltext_nocitations.txt'
p3337
aS'../data/echr-copy-1/34684_97/jud_en/20020205/001-60024fulltext_nocitations.txt'
p3338
aS'../data/echr-copy-1/34150_04/jud_en/20080403/001-85691fulltext_nocitations.txt'
p3339
aS'../data/echr-copy-1/13972_88/jud_en/19931124/001-57852fulltext_nocitations.txt'
p3340
aS'../data/echr-copy-1/21593_93/jud_en/19980727/001-58207fulltext_nocitations.txt'
p3341
aS'../data/echr-copy-1/17209_02/jud_en/20060620/001-75934fulltext_nocitations.txt'
p3342
aS'../data/echr-copy-1/47940_99/jud_en/20040720/001-61931fulltext_nocitations.txt'
p3343
aS'../data/echr-copy-1/37345_03/jud_en/20110203/001-103232fulltext_nocitations.txt'
p3344
aS'../data/echr-copy-1/1948_04/jud_en/20070111/001-78986fulltext_nocitations.txt'
p3345
aS'../data/echr-copy-1/4417_02/jud_en/20050927/001-70289fulltext_nocitations.txt'
p3346
aS'../data/echr-copy-1/25052_94/jud_en/19971009/001-58102fulltext_nocitations.txt'
p3347
aS'../data/echr-copy-1/31827_96/jud_en/20010503/001-59449fulltext_nocitations.txt'
p3348
aS'../data/echr-copy-1/3684_07/jud_en/20120405/001-110246fulltext_nocitations.txt'
p3349
aS'../data/echr-copy-1/58104_08/jud_en/20120724/001-112449fulltext_nocitations.txt'
p3350
aS'../data/echr-copy-1/10664_05/jud_en/20091008/001-94863fulltext_nocitations.txt'
p3351
aS'../data/echr-copy-1/7064_05/jud_en/20060601/001-75646fulltext_nocitations.txt'
p3352
aS'../data/echr-copy-1/13425_02/jud_en/20060504/001-75311fulltext_nocitations.txt'
p3353
aS'../data/echr-copy-1/13441_87/jud_en/19921127/001-57788fulltext_nocitations.txt'
p3354
aS'../data/echr-copy-1/21594_93/jud_en/19990520/001-58251fulltext_nocitations.txt'
p3355
aS'../data/echr-copy-1/5124_03/jud_en/20050113/001-67950fulltext_nocitations.txt'
p3356
aS'../data/echr-copy-1/31122_05/jud_en/20080717/001-87517fulltext_nocitations.txt'
p3357
aS'../data/echr-copy-1/21987_93/jud_en/19961218/001-58003fulltext_nocitations.txt'
p3358
aS'../data/echr-copy-1/12033_86/jud_en/19910218/001-57651fulltext_nocitations.txt'
p3359
aS'../data/echr-copy-1/15670_04/jud_en/20081209/001-90144fulltext_nocitations.txt'
p3360
aS'../data/echr-copy-1/43797_98/jud_en/20060406/001-73081fulltext_nocitations.txt'
p3361
aS'../data/echr-copy-1/25843_94/jud_en/19970902/001-58094fulltext_nocitations.txt'
p3362
aS'../data/echr-copy-1/307_02/jud_en/20070111/001-78940fulltext_nocitations.txt'
p3363
aS'../data/echr-copy-1/32446_96/jud_en/20041102/001-67228fulltext_nocitations.txt'
p3364
aS'../data/echr-copy-1/5134_09/jud_en/20110607/001-104981fulltext_nocitations.txt'
p3365
aS'../data/echr-copy-1/26433_95/jud_en/19970701/001-58053fulltext_nocitations.txt'
p3366
aS'../data/echr-copy-1/66907_01/jud_en/20070301/001-79646fulltext_nocitations.txt'
p3367
aS'../data/echr-copy-1/24760_94/jud_en/19981028/001-58261fulltext_nocitations.txt'
p3368
aS'../data/echr-copy-1/52690_99/jud_en/20051011/001-70524fulltext_nocitations.txt'
p3369
aS'../data/echr-copy-1/28604_03/jud_en/20090915/001-93951fulltext_nocitations.txt'
p3370
aS'../data/echr-copy-1/18139_91/jud_en/19950713/001-57947fulltext_nocitations.txt'
p3371
aS'../data/echr-copy-1/12583_09/jud_en/20130205/001-116326fulltext_nocitations.txt'
p3372
aS'../data/echr-copy-1/12843_87/jud_en/19911128/001-57703fulltext_nocitations.txt'
p3373
aS'../data/echr-copy-1/11562_05/jud_en/20060627/001-76066fulltext_nocitations.txt'
p3374
aS'../data/echr-copy-1/42703_98/jud_en/20041216/001-67775fulltext_nocitations.txt'
p3375
aS'../data/echr-copy-1/23414_02/jud_en/20041116/001-67472fulltext_nocitations.txt'
p3376
aS'../data/echr-copy-1/2220_05/jud_en/20100610/001-99208fulltext_nocitations.txt'
p3377
aS'../data/echr-copy-1/27295_95/jud_en/19980730/001-58215fulltext_nocitations.txt'
p3378
aS'../data/echr-copy-1/12728_87/jud_en/19921125/001-57765fulltext_nocitations.txt'
p3379
aS'../data/echr-copy-1/26886_02/jud_en/20050428/001-68940fulltext_nocitations.txt'
p3380
aS'../data/echr-copy-1/48242_06/jud_en/20100713/001-99923fulltext_nocitations.txt'
p3381
aS'../data/echr-copy-1/5326_04/jud_en/20071122/001-83425fulltext_nocitations.txt'
p3382
aS'../data/echr-copy-1/15573_89/jud_en/19980730/001-58213fulltext_nocitations.txt'
p3383
aS'../data/echr-copy-1/13616_88/jud_en/19970703/001-58040fulltext_nocitations.txt'
p3384
aS'../data/echr-copy-1/20071_07/jud_en/20120417/001-110499fulltext_nocitations.txt'
p3385
aS'../data/echr-copy-1/44558_98/jud_en/20010724/001-59608fulltext_nocitations.txt'
p3386
aS'../data/echr-copy-1/14647_89/jud_en/19930920/001-57839fulltext_nocitations.txt'
p3387
aS'../data/echr-copy-1/21055_09/jud_en/20100520/001-98832fulltext_nocitations.txt'
p3388
aS'../data/echr-copy-1/40887_98/jud_en/20030506/001-61088fulltext_nocitations.txt'
p3389
aS'../data/echr-copy-1/22603_02/jud_en/20100520/001-98554fulltext_nocitations.txt'
p3390
aS'../data/echr-copy-1/9958_04/jud_en/20110614/001-105149fulltext_nocitations.txt'
p3391
aS'../data/echr-copy-1/15375_89/jud_en/19950223/001-57918fulltext_nocitations.txt'
p3392
aS'../data/echr-copy-1/17303_03/jud_en/20051129/001-71327fulltext_nocitations.txt'
p3393
aS'../data/echr-copy-1/3223_07/jud_en/20080612/001-86959fulltext_nocitations.txt'
p3394
aS'../data/echr-copy-1/33347_07/jud_en/20130103/001-115713fulltext_nocitations.txt'
p3395
aS'../data/echr-copy-1/19632_92/jud_en/19980902/001-58223fulltext_nocitations.txt'
p3396
aS'../data/echr-copy-1/37645_97/jud_en/20021001/001-60653fulltext_nocitations.txt'
p3397
aS'../data/echr-copy-1/41035_98/jud_en/20050118/001-67982fulltext_nocitations.txt'
p3398
aS'../data/echr-copy-1/37251_04/jud_en/20061205/001-78283fulltext_nocitations.txt'
p3399
aS'../data/echr-copy-1/44936_07/jud_en/20130122/001-116034fulltext_nocitations.txt'
p3400
aS'../data/echr-copy-1/14853_03/jud_en/20060921/001-76964fulltext_nocitations.txt'
p3401
aS'../data/echr-copy-1/59498_00/jud_en/20020507/001-60449fulltext_nocitations.txt'
p3402
aS'../data/echr-copy-1/23452_94/jud_en/19981028/001-58257fulltext_nocitations.txt'
p3403
aS'../data/echr-copy-1/54836_00/jud_en/20060803/001-76543fulltext_nocitations.txt'
p3404
aS'../data/echr-copy-1/26307_95/jud_en/20040408/001-61698fulltext_nocitations.txt'
p3405
aS'../data/echr-copy-1/57641_00/jud_en/20070329/001-79943fulltext_nocitations.txt'
p3406
aS'../data/echr-copy-1/28904_02/jud_en/20051004/001-70366fulltext_nocitations.txt'
p3407
aS'../data/echr-copy-1/25706_03/jud_en/20080110/001-84329fulltext_nocitations.txt'
p3408
aS'../data/echr-copy-1/50213_08/jud_en/20100727/001-100141fulltext_nocitations.txt'
p3409
aS'../data/echr-copy-1/35853_04/jud_en/20071218/001-84050fulltext_nocitations.txt'
p3410
aS'../data/echr-copy-1/17869_91/jud_en/19960423/001-57981fulltext_nocitations.txt'
p3411
aS'../data/echr-copy-1/15707_10/jud_en/20120117/001-108623fulltext_nocitations.txt'
p3412
aS'../data/echr-copy-1/21352_02/jud_en/20080522/001-86439fulltext_nocitations.txt'
p3413
aS'../data/echr-copy-1/14139_03/jud_en/20061005/001-77268fulltext_nocitations.txt'
p3414
aS'../data/echr-copy-1/17988_02/jud_en/20080424/001-86028fulltext_nocitations.txt'
p3415
aS'../data/echr-copy-1/64520_10/jud_en/20131203/001-138568fulltext_nocitations.txt'
p3416
aS'../data/echr-copy-1/27996_06/jud_en/20091222/001-96491fulltext_nocitations.txt'
p3417
aS'../data/echr-copy-1/33202_96/jud_en/20020528/001-60485fulltext_nocitations.txt'
p3418
aS'../data/echr-copy-1/14810_02/jud_en/20080117/001-84452fulltext_nocitations.txt'
p3419
aS'../data/echr-copy-1/33549_02/jud_en/20060601/001-75604fulltext_nocitations.txt'
p3420
aS'../data/echr-copy-1/25693_94/jud_en/20001026/001-58917fulltext_nocitations.txt'
p3421
aS'../data/echr-copy-1/37703_97/jud_en/20021024/001-60707fulltext_nocitations.txt'
p3422
aS'../data/echr-copy-1/32092_02/jud_en/20080612/001-86885fulltext_nocitations.txt'
p3423
aS'../data/echr-copy-1/17551_02/jud_en/20091119/001-95738fulltext_nocitations.txt'
p3424
aS'../data/echr-copy-1/36570_97/jud_en/19990913/001-58303fulltext_nocitations.txt'
p3425
aS'../data/echr-copy-1/13343_87/jud_en/19920325/001-57770fulltext_nocitations.txt'
p3426
aS'../data/echr-copy-1/74613_01/jud_en/20070712/001-81608fulltext_nocitations.txt'
p3427
aS'../data/echr-copy-1/33488_96/jud_en/20000215/001-58590fulltext_nocitations.txt'
p3428
aS'../data/echr-copy-1/3305_04/jud_en/20071218/001-84042fulltext_nocitations.txt'
p3429
aS'../data/echr-copy-1/73049_01/jud_en/20070111/001-78981fulltext_nocitations.txt'
p3430
aS'../data/echr-copy-1/37820_06/jud_en/20091008/001-94881fulltext_nocitations.txt'
p3431
aS'../data/echr-copy-1/44511_04/jud_en/20100617/001-99382fulltext_nocitations.txt'
p3432
aS'../data/echr-copy-1/26761_95/jud_en/20021112/001-60733fulltext_nocitations.txt'
p3433
aS'../data/echr-copy-1/49158_99/jud_en/20040624/001-61852fulltext_nocitations.txt'
p3434
aS'../data/echr-copy-1/28523_95/jud_en/19980923/001-58229fulltext_nocitations.txt'
p3435
aS'../data/echr-copy-1/13637_03/jud_en/20091013/001-94967fulltext_nocitations.txt'
p3436
aS'../data/echr-copy-1/38372_06/jud_en/20101026/001-101442fulltext_nocitations.txt'
p3437
aS'../data/echr-copy-1/35760_04/jud_en/20071220/001-84131fulltext_nocitations.txt'
p3438
aS'../data/echr-copy-1/25632_02/jud_en/20060223/001-72556fulltext_nocitations.txt'
p3439
aS'../data/echr-copy-1/19380_92/jud_en/19960610/001-57990fulltext_nocitations.txt'
p3440
aS'../data/echr-copy-1/58590_11/jud_en/20130425/001-118738fulltext_nocitations.txt'
p3441
aS'../data/echr-copy-1/19180_03/jud_en/20090407/001-92079fulltext_nocitations.txt'
p3442
aS'../data/echr-copy-1/68345_01/jud_en/20060601/001-75562fulltext_nocitations.txt'
p3443
aS'../data/echr-copy-1/28488_04/jud_en/20080918/001-88387fulltext_nocitations.txt'
p3444
aS'../data/echr-copy-1/19856_04/jud_en/20090409/001-92147fulltext_nocitations.txt'
p3445
aS'../data/echr-copy-1/15118_89/jud_en/19930226/001-57803fulltext_nocitations.txt'
p3446
aS'../data/echr-copy-1/11944_05/jud_en/20110512/001-104726fulltext_nocitations.txt'
p3447
aS'../data/echr-copy-1/34653_04/jud_en/20120626/001-111591fulltext_nocitations.txt'
p3448
aS'../data/echr-copy-1/9381_81/jud_en/19870625/001-57458fulltext_nocitations.txt'
p3449
aS'../data/echr-copy-1/69519_01/jud_en/20091022/001-95318fulltext_nocitations.txt'
p3450
aS'../data/echr-copy-1/26737_95/jud_en/19971219/001-58127fulltext_nocitations.txt'
p3451
aS'../data/echr-copy-1/49872_11/jud_en/20130430/001-119382fulltext_nocitations.txt'
p3452
aS'../data/echr-copy-1/23865_02/jud_en/20061212/001-78443fulltext_nocitations.txt'
p3453
aS'../data/echr-copy-1/34653_08/jud_en/20100727/001-99885fulltext_nocitations.txt'
p3454
aS'../data/echr-copy-1/25420_94/jud_en/19971216/001-58122fulltext_nocitations.txt'
p3455
aS'../data/echr-copy-1/17912_05/jud_en/20070503/001-80444fulltext_nocitations.txt'
p3456
aS'../data/echr-copy-1/31836_04/jud_en/20090702/001-93364fulltext_nocitations.txt'
p3457
aS'../data/echr-copy-1/53341_99/jud_en/20030710/001-61196fulltext_nocitations.txt'
p3458
aS'../data/echr-copy-1/18877_91/jud_en/19961115/001-58066fulltext_nocitations.txt'
p3459
aS'../data/echr-copy-1/44425_08/jud_en/20131024/001-127221fulltext_nocitations.txt'
p3460
aS'../data/echr-copy-1/38570_05/jud_en/20100408/001-98182fulltext_nocitations.txt'
p3461
aS'../data/echr-copy-1/37374_05/jud_en/20090414/001-92171fulltext_nocitations.txt'
p3462
aS'../data/echr-copy-1/58258_09/jud_en/20130604/001-120064fulltext_nocitations.txt'
p3463
aS'../data/echr-copy-1/77835_01/jud_en/20060822/001-76758fulltext_nocitations.txt'
p3464
aS'../data/echr-copy-1/61651_00/jud_en/20050614/001-69354fulltext_nocitations.txt'
p3465
aS'../data/echr-copy-1/17080_07/jud_en/20110915/001-106171fulltext_nocitations.txt'
p3466
aS'../data/echr-copy-1/20571_04/jud_en/20090730/001-93856fulltext_nocitations.txt'
p3467
aS'../data/echr-copy-1/10465_83/jud_en/19880324/001-57548fulltext_nocitations.txt'
p3468
aS'../data/echr-copy-1/40807_07/jud_en/20091020/001-95195fulltext_nocitations.txt'
p3469
aS'../data/echr-copy-1/41704_02/jud_en/20091020/001-95259fulltext_nocitations.txt'
p3470
aS'../data/echr-copy-1/30686_03/jud_en/20070215/001-79480fulltext_nocitations.txt'
p3471
aS'../data/echr-copy-1/13378_05/jud_en/20080429/001-86146fulltext_nocitations.txt'
p3472
aS'../data/echr-copy-1/32842_96/jud_en/20000627/001-58736fulltext_nocitations.txt'
p3473
aS'../data/echr-copy-1/22600_93/jud_en/19980421/001-58154fulltext_nocitations.txt'
p3474
aS'../data/echr-copy-1/4464_70/jud_en/19751027/001-57435fulltext_nocitations.txt'
p3475
aS'../data/echr-copy-1/20493_07/jud_en/20120426/001-110689fulltext_nocitations.txt'
p3476
aS'../data/echr-copy-1/8978_80/jud_en/19850326/001-57603fulltext_nocitations.txt'
p3477
aS'../data/echr-copy-1/28028_95/jud_en/19980219/001-58137fulltext_nocitations.txt'
p3478
aS'../data/echr-copy-1/37500_04/jud_en/20090618/001-93119fulltext_nocitations.txt'
p3479
aS'../data/echr-copy-1/11612_85/jud_en/19890525/001-57617fulltext_nocitations.txt'
p3480
aS'../data/echr-copy-1/13710_88/jud_en/19921216/001-57887fulltext_nocitations.txt'
p3481
aS'../data/echr-copy-1/27209_03/jud_en/20091006/001-94644fulltext_nocitations.txt'
p3482
aS'../data/echr-copy-1/29182_03/jud_en/20061102/001-77819fulltext_nocitations.txt'
p3483
aS'../data/echr-copy-1/14697_07/jud_en/20130924/001-126441fulltext_nocitations.txt'
p3484
aS'../data/echr-copy-1/28275_06/jud_en/20120426/001-110531fulltext_nocitations.txt'
p3485
aS'../data/echr-copy-1/26436_05/jud_en/20121009/001-113757fulltext_nocitations.txt'
p3486
aS'../data/echr-copy-1/27763_05/jud_en/20110125/001-103003fulltext_nocitations.txt'
p3487
aS'../data/echr-copy-1/33795_08/jud_en/20130528/001-119964fulltext_nocitations.txt'
p3488
aS'../data/echr-copy-1/5515_09/jud_en/20121127/001-114783fulltext_nocitations.txt'
p3489
aS'../data/echr-copy-1/17092_04/jud_en/20131114/001-128045fulltext_nocitations.txt'
p3490
aS'../data/echr-copy-1/31748_06/jud_en/20081216/001-90287fulltext_nocitations.txt'
p3491
aS'../data/echr-copy-1/40984_07/jud_en/20100422/001-98401fulltext_nocitations.txt'
p3492
aS'../data/echr-copy-1/3817_07/jud_en/20121016/001-113783fulltext_nocitations.txt'
p3493
aS'../data/echr-copy-1/26365_05/jud_en/20081023/001-89040fulltext_nocitations.txt'
p3494
aS'../data/echr-copy-1/16474_03/jud_en/20101014/001-100941fulltext_nocitations.txt'
p3495
aS'../data/echr-copy-1/287_03/jud_en/20080610/001-86867fulltext_nocitations.txt'
p3496
aS'../data/echr-copy-1/22495_93/jud_en/19980902/001-58238fulltext_nocitations.txt'
p3497
aS'../data/echr-copy-1/19467_07/jud_en/20090414/001-92167fulltext_nocitations.txt'
p3498
aS'../data/echr-copy-1/44962_98/jud_en/20030424/001-61053fulltext_nocitations.txt'
p3499
aS'../data/echr-copy-1/3925_05/jud_en/20090602/001-92833fulltext_nocitations.txt'
p3500
aS'../data/echr-copy-1/29537_95/jud_en/20021128/001-60793fulltext_nocitations.txt'
p3501
aS'../data/echr-copy-1/65191_01/jud_en/20050517/001-69030fulltext_nocitations.txt'
p3502
aS'../data/echr-copy-1/4241_03/jud_en/20101028/001-101310fulltext_nocitations.txt'
p3503
aS'../data/echr-copy-1/23992_02/jud_en/20060411/001-73179fulltext_nocitations.txt'
p3504
aS'../data/echr-copy-1/7821_07/jud_en/20131024/001-127216fulltext_nocitations.txt'
p3505
aS'../data/echr-copy-1/19639_92/jud_en/19980923/001-58231fulltext_nocitations.txt'
p3506
aS'../data/echr-copy-1/9659_82/jud_en/19880427/001-57446fulltext_nocitations.txt'
p3507
aS'../data/echr-copy-1/32981_96/jud_en/20020507/001-60442fulltext_nocitations.txt'
p3508
aS'../data/echr-copy-1/20166_92/jud_en/19951122/001-57965fulltext_nocitations.txt'
p3509
aS'../data/echr-copy-1/25904_07/jud_en/20080717/001-87458fulltext_nocitations.txt'
p3510
aS'../data/echr-copy-1/24478_03/jud_en/20101021/001-101177fulltext_nocitations.txt'
p3511
aS'../data/echr-copy-1/4251_02/jud_en/20051108/001-70875fulltext_nocitations.txt'
p3512
aS'../data/echr-copy-1/30961_03/jud_en/20060427/001-75213fulltext_nocitations.txt'
p3513
aS'../data/echr-copy-1/17674_02/jud_en/20100701/001-99750fulltext_nocitations.txt'
p3514
aS'../data/echr-copy-1/5384_03/jud_en/20051220/001-71742fulltext_nocitations.txt'
p3515
aS'../data/echr-copy-1/30663_04/jud_en/20081218/001-90364fulltext_nocitations.txt'
p3516
aS'../data/echr-copy-1/22014_04/jud_en/20080717/001-87640fulltext_nocitations.txt'
p3517
aS'../data/echr-copy-1/20877_04/jud_en/20070712/001-81641fulltext_nocitations.txt'
p3518
aS'../data/echr-copy-1/275_02/jud_en/20100914/001-100407fulltext_nocitations.txt'
p3519
aS'../data/echr-copy-1/37575_04/jud_en/20120403/001-110164fulltext_nocitations.txt'
p3520
aS'../data/echr-copy-1/18375_09/jud_en/20130507/001-119228fulltext_nocitations.txt'
p3521
aS'../data/echr-copy-1/33933_05/jud_en/20090917/001-94097fulltext_nocitations.txt'
p3522
aS'../data/echr-copy-1/23462_94/jud_en/19990708/001-58271fulltext_nocitations.txt'
p3523
aS'../data/echr-copy-1/39958_02/jud_en/20071016/001-82750fulltext_nocitations.txt'
p3524
aS'../data/echr-copy-1/8793_79/jud_en/19860221/001-57507fulltext_nocitations.txt'
p3525
aS'../data/echr-copy-1/16965_10/jud_en/20120221/001-109191fulltext_nocitations.txt'
p3526
aS'../data/echr-copy-1/36813_97/jud_en/20060329/001-72925fulltext_nocitations.txt'
p3527
aS'../data/echr-copy-1/60333_00/jud_en/20100420/001-98331fulltext_nocitations.txt'
p3528
aS'../data/echr-copy-1/42620_02/jud_en/20050421/001-68855fulltext_nocitations.txt'
p3529
aS'../data/echr-copy-1/27568_02/jud_en/20070906/001-82211fulltext_nocitations.txt'
p3530
aS'../data/echr-copy-1/8225_78/jud_en/19850528/001-57425fulltext_nocitations.txt'
p3531
aS'../data/echr-copy-1/44726_04/jud_en/20071030/001-83010fulltext_nocitations.txt'
p3532
aS'../data/echr-copy-1/6924_03/jud_en/20070614/001-81093fulltext_nocitations.txt'
p3533
aS'../data/echr-copy-1/6690_02/jud_en/20070227/001-79585fulltext_nocitations.txt'
p3534
aS'../data/echr-copy-1/8695_79/jud_en/19871028/001-57505fulltext_nocitations.txt'
p3535
aS'../data/echr-copy-1/1005_08/jud_en/20111220/001-108232fulltext_nocitations.txt'
p3536
aS'../data/echr-copy-1/27781_95/jud_en/19990401/001-58247fulltext_nocitations.txt'
p3537
aS'../data/echr-copy-1/48983_99/jud_en/20060926/001-76989fulltext_nocitations.txt'
p3538
aS'../data/echr-copy-1/609_07/jud_en/20100720/001-99880fulltext_nocitations.txt'
p3539
aS'../data/echr-copy-1/12463_05/jud_en/20100422/001-98344fulltext_nocitations.txt'
p3540
aS'../data/echr-copy-1/21153_02/jud_en/20060601/001-75589fulltext_nocitations.txt'
p3541
aS'../data/echr-copy-1/31127_96/jud_en/19991116/001-58360fulltext_nocitations.txt'
p3542
aS'../data/echr-copy-1/20745_04/jud_en/20080619/001-87116fulltext_nocitations.txt'
p3543
aS'../data/echr-copy-1/33977_96/jud_en/20010726/001-59613fulltext_nocitations.txt'
p3544
aS'../data/echr-copy-1/32241_07/jud_en/20111006/001-106653fulltext_nocitations.txt'
p3545
aS'../data/echr-copy-1/18990_05/jud_en/20110705/001-105557fulltext_nocitations.txt'
p3546
aS'../data/echr-copy-1/39401_04/jud_en/20120612/001-111412fulltext_nocitations.txt'
p3547
aS'../data/echr-copy-1/41723_06/jud_en/20120403/001-110144fulltext_nocitations.txt'
p3548
aS'../data/echr-copy-1/21906_04/jud_en/20080212/001-85019fulltext_nocitations.txt'
p3549
aS'../data/echr-copy-1/28524_95/jud_en/20010419/001-59413fulltext_nocitations.txt'
p3550
aS'../data/echr-copy-1/19433_07/jud_en/20120731/001-112534fulltext_nocitations.txt'
p3551
aS'../data/echr-copy-1/13440_87/jud_en/19910219/001-57667fulltext_nocitations.txt'
p3552
aS'../data/echr-copy-1/27888_04/jud_en/20081104/001-89289fulltext_nocitations.txt'
p3553
aS'../data/echr-copy-1/23536_94/jud_en/19990708/001-58276fulltext_nocitations.txt'
p3554
aS'../data/echr-copy-1/13026_02/jud_en/20060124/001-72158fulltext_nocitations.txt'
p3555
aS'../data/echr-copy-1/24888_94/jud_en/19991216/001-58594fulltext_nocitations.txt'
p3556
aS'../data/echr-copy-1/4378_02/jud_en/20090310/001-91704fulltext_nocitations.txt'
p3557
aS'../data/echr-copy-1/8398_78/jud_en/19830425/001-57554fulltext_nocitations.txt'
p3558
aS'../data/echr-copy-1/1115_02/jud_en/20070510/001-80502fulltext_nocitations.txt'
p3559
aS'../data/echr-copy-1/10857_84/jud_en/19890707/001-57611fulltext_nocitations.txt'
p3560
aS'../data/echr-copy-1/9464_02/jud_en/20071213/001-83963fulltext_nocitations.txt'
p3561
aS'../data/echr-copy-1/32347_02/jud_en/20081014/001-88895fulltext_nocitations.txt'
p3562
aS'../data/echr-copy-1/22729_93/jud_en/19980219/001-58138fulltext_nocitations.txt'
p3563
aS'../data/echr-copy-1/11800_85/jud_en/19910426/001-57675fulltext_nocitations.txt'
p3564
aS'../data/echr-copy-1/25452_03/jud_en/20070111/001-78958fulltext_nocitations.txt'
p3565
aS'../data/echr-copy-1/44093_98/jud_en/20041026/001-67194fulltext_nocitations.txt'
p3566
aS'../data/echr-copy-1/39846_04/jud_en/20080131/001-84813fulltext_nocitations.txt'
p3567
aS'../data/echr-copy-1/21638_03/jud_en/20071220/001-84119fulltext_nocitations.txt'
p3568
aS'../data/echr-copy-1/51585_99/jud_en/20010726/001-59616fulltext_nocitations.txt'
p3569
aS'../data/echr-copy-1/66460_01/jud_en/20050602/001-69236fulltext_nocitations.txt'
p3570
aS'../data/echr-copy-1/27785_95/jud_en/20001019/001-58893fulltext_nocitations.txt'
p3571
aS'../data/echr-copy-1/10274_08/jud_en/20110222/001-103596fulltext_nocitations.txt'
p3572
aS'../data/echr-copy-1/42606_05/jud_en/20130723/001-122885fulltext_nocitations.txt'
p3573
aS'../data/echr-copy-1/24173_06/jud_en/20100209/001-97155fulltext_nocitations.txt'
p3574
aS'../data/echr-copy-1/77690_01/jud_en/20061205/001-78298fulltext_nocitations.txt'
p3575
aS'../data/echr-copy-1/34215_02/jud_en/20070531/001-80729fulltext_nocitations.txt'
p3576
aS'../data/echr-copy-1/15797_89/jud_en/19960926/001-58058fulltext_nocitations.txt'
p3577
aS'../data/echr-copy-1/34611_97/jud_en/20020702/001-60559fulltext_nocitations.txt'
p3578
aS'../data/echr-copy-1/58497_00/jud_en/20060608/001-75694fulltext_nocitations.txt'
p3579
aS'../data/echr-copy-1/20429_02/jud_en/20060119/001-72109fulltext_nocitations.txt'
p3580
aS'../data/echr-copy-1/13444_04/jud_en/20090430/001-92525fulltext_nocitations.txt'
p3581
aS'../data/echr-copy-1/59502_00/jud_en/20060330/001-72954fulltext_nocitations.txt'
p3582
aS'../data/echr-copy-1/24250_11/jud_en/20130409/001-118340fulltext_nocitations.txt'
p3583
aS'../data/echr-copy-1/49684_99/jud_en/20010927/001-59682fulltext_nocitations.txt'
p3584
aS'../data/echr-copy-1/27295_03/jud_en/20051117/001-71121fulltext_nocitations.txt'
p3585
aS'../data/echr-copy-1/11910_85/jud_en/19910219/001-57660fulltext_nocitations.txt'
p3586
aS'../data/echr-copy-1/36542_05/jud_en/20101221/001-102451fulltext_nocitations.txt'
p3587
aS'../data/echr-copy-1/38998_09/jud_en/20120306/001-109324fulltext_nocitations.txt'
p3588
aS'../data/echr-copy-1/15764_89/jud_en/19960220/001-57978fulltext_nocitations.txt'
p3589
aS'../data/echr-copy-1/32967_96/jud_en/20020117/001-60329fulltext_nocitations.txt'
p3590
aS'../data/echr-copy-1/43589_02/jud_en/20100211/001-97216fulltext_nocitations.txt'
p3591
aS'../data/echr-copy-1/75472_01/jud_en/20100916/001-100377fulltext_nocitations.txt'
p3592
aS'../data/echr-copy-1/62194_00/jud_en/20050517/001-69033fulltext_nocitations.txt'
p3593
aS'../data/echr-copy-1/69756_01/jud_en/20041021/001-67150fulltext_nocitations.txt'
p3594
aS'../data/echr-copy-1/57947_00/jud_en/20050224/001-68379fulltext_nocitations.txt'
p3595
aS'../data/echr-copy-1/35367_08/jud_en/20100629/001-99721fulltext_nocitations.txt'
p3596
aS'../data/echr-copy-1/37616_02/jud_en/20101207/001-102151fulltext_nocitations.txt'
p3597
aS'../data/echr-copy-1/10231_02/jud_en/20051108/001-70887fulltext_nocitations.txt'
p3598
aS'../data/echr-copy-1/14018_08/jud_en/20120614/001-111496fulltext_nocitations.txt'
p3599
aS'../data/echr-copy-1/30997_02/jud_en/20080925/001-88482fulltext_nocitations.txt'
p3600
aS'../data/echr-copy-1/65417_01/jud_en/20100902/001-100263fulltext_nocitations.txt'
p3601
aS'../data/echr-copy-1/63354_00/jud_en/20070215/001-79436fulltext_nocitations.txt'
p3602
aS'../data/echr-copy-1/28309_03/jud_en/20120306/001-109363fulltext_nocitations.txt'
p3603
aS'../data/echr-copy-1/50882_99/jud_en/20050927/001-70283fulltext_nocitations.txt'
p3604
aS'../data/echr-copy-1/17472_04/jud_en/20090212/001-91321fulltext_nocitations.txt'
p3605
aS'../data/echr-copy-1/31443_96/jud_en/20050928/001-70326fulltext_nocitations.txt'
p3606
aS'../data/echr-copy-1/44079_98/jud_en/20051020/001-70678fulltext_nocitations.txt'
p3607
aS'../data/echr-copy-1/14327_88/jud_en/19930420/001-57843fulltext_nocitations.txt'
p3608
aS'../data/echr-copy-1/8992_07/jud_en/20111013/001-106802fulltext_nocitations.txt'
p3609
aS'../data/echr-copy-1/10522_83/jud_en/19891219/001-57616fulltext_nocitations.txt'
p3610
aS'../data/echr-copy-1/21887_93/jud_en/20101026/001-101396fulltext_nocitations.txt'
p3611
aS'../data/echr-copy-1/35677_05/jud_en/20101021/001-101204fulltext_nocitations.txt'
p3612
aS'../data/echr-copy-1/4158_05/jud_en/20100112/001-96585fulltext_nocitations.txt'
p3613
aS'../data/echr-copy-1/14570_89/jud_en/19950928/001-57944fulltext_nocitations.txt'
p3614
aS'../data/echr-copy-1/1448_04/jud_en/20071009/001-82580fulltext_nocitations.txt'
p3615
aS'../data/echr-copy-1/28888_02/jud_en/20071127/001-83454fulltext_nocitations.txt'
p3616
aS'../data/echr-copy-1/22492_93/jud_en/20000328/001-58524fulltext_nocitations.txt'
p3617
aS'../data/echr-copy-1/55408_07/jud_en/20130205/001-116186fulltext_nocitations.txt'
p3618
aS'../data/echr-copy-1/19807_92/jud_en/20060425/001-75148fulltext_nocitations.txt'
p3619
aS'../data/echr-copy-1/28856_95/jud_en/20020521/001-60466fulltext_nocitations.txt'
p3620
aS'../data/echr-copy-1/1409_03/jud_en/20090730/001-93870fulltext_nocitations.txt'
p3621
aS'../data/echr-copy-1/37698_97/jud_en/20000928/001-58817fulltext_nocitations.txt'
p3622
aS'../data/echr-copy-1/21893_93/jud_en/19980401/001-58152fulltext_nocitations.txt'
p3623
aS'../data/echr-copy-1/34481_97/jud_en/20020620/001-60516fulltext_nocitations.txt'
p3624
aS'../data/echr-copy-1/41488_98/jud_en/20000518/001-58831fulltext_nocitations.txt'
p3625
aS'../data/echr-copy-1/36181_05/jud_en/20131112/001-128035fulltext_nocitations.txt'
p3626
aS'../data/echr-copy-1/1503_02/jud_en/20110503/001-104649fulltext_nocitations.txt'
p3627
aS'../data/echr-copy-1/43382_02/jud_en/20070906/001-82217fulltext_nocitations.txt'
p3628
aS'../data/echr-copy-1/7025_04/jud_en/20090924/001-94293fulltext_nocitations.txt'
p3629
aS'../data/echr-copy-1/16621_05/jud_en/20101125/001-101799fulltext_nocitations.txt'
p3630
aS'../data/echr-copy-1/31853_96/jud_en/20001205/001-59068fulltext_nocitations.txt'
p3631
aS'../data/echr-copy-1/61382_09/jud_en/20130716/001-122372fulltext_nocitations.txt'
p3632
aS'../data/echr-copy-1/39690_98/jud_en/20021003/001-60657fulltext_nocitations.txt'
p3633
aS'../data/echr-copy-1/74651_01/jud_en/20090115/001-90651fulltext_nocitations.txt'
p3634
aS'../data/echr-copy-1/23413_94/jud_en/19980609/001-58176fulltext_nocitations.txt'
p3635
aS'../data/echr-copy-1/26772_95/jud_en/20000406/001-58559fulltext_nocitations.txt'
p3636
aS'../data/echr-copy-1/30452_96/jud_en/20040401/001-61687fulltext_nocitations.txt'
p3637
aS'../data/echr-copy-1/30009_03/jud_en/20080722/001-87703fulltext_nocitations.txt'
p3638
aS'../data/echr-copy-1/75618_01/jud_en/20060330/001-72960fulltext_nocitations.txt'
p3639
aS'../data/echr-copy-1/46295_99/jud_en/20020528/001-60486fulltext_nocitations.txt'
p3640
aS'../data/echr-copy-1/55762_00/jud_en/20051213/001-71627fulltext_nocitations.txt'
p3641
aS'../data/echr-copy-1/21454_04/jud_en/20110303/001-103650fulltext_nocitations.txt'
p3642
aS'../data/echr-copy-1/45094_06/jud_en/20090331/001-91938fulltext_nocitations.txt'
p3643
aS'../data/echr-copy-1/5417_06/jud_en/20100629/001-99719fulltext_nocitations.txt'
p3644
aS'../data/echr-copy-1/37598_97/jud_en/20040720/001-61929fulltext_nocitations.txt'
p3645
aS'../data/echr-copy-1/37201_97/jud_en/20010322/001-59352fulltext_nocitations.txt'
p3646
aS'../data/echr-copy-1/29295_95/jud_en/20010227/001-59221fulltext_nocitations.txt'
p3647
aS'../data/echr-copy-1/29192_95/jud_en/20000711/001-59160fulltext_nocitations.txt'
p3648
aS'../data/echr-copy-1/58887_00/jud_en/20031202/001-61484fulltext_nocitations.txt'
p3649
aS'../data/echr-copy-1/35128_02/jud_en/20060119/001-72114fulltext_nocitations.txt'
p3650
aS'../data/echr-copy-1/40799_06/jud_en/20131107/001-127811fulltext_nocitations.txt'
p3651
aS'../data/echr-copy-1/12444_05/jud_en/20091215/001-96177fulltext_nocitations.txt'
p3652
aS'../data/echr-copy-1/25196_04/jud_en/20100202/001-97049fulltext_nocitations.txt'
p3653
aS'../data/echr-copy-1/26261_05/jud_en/20130314/001-117127fulltext_nocitations.txt'
p3654
aS'../data/echr-copy-1/22414_93/jud_en/19961115/001-58004fulltext_nocitations.txt'
p3655
aS'../data/echr-copy-1/38361_97/jud_en/20020613/001-60505fulltext_nocitations.txt'
p3656
aS'../data/echr-copy-1/9118_80/jud_en/19861024/001-57418fulltext_nocitations.txt'
p3657
aS'../data/echr-copy-1/29052_03/jud_en/20051117/001-71123fulltext_nocitations.txt'
p3658
aS'../data/echr-copy-1/69306_01/jud_en/20051020/001-70687fulltext_nocitations.txt'
p3659
aS'../data/echr-copy-1/75529_01/jud_en/20060608/001-75689fulltext_nocitations.txt'
p3660
aS'../data/echr-copy-1/34469_05/jud_en/20091201/001-95914fulltext_nocitations.txt'
p3661
aS'../data/echr-copy-1/44686_07/jud_en/20110628/001-105402fulltext_nocitations.txt'
p3662
aS'../data/echr-copy-1/64752_01/jud_en/20071122/001-83413fulltext_nocitations.txt'
p3663
aS'../data/echr-copy-1/74352_11/jud_en/20121218/001-115386fulltext_nocitations.txt'
p3664
aS'../data/echr-copy-1/21313_06/jud_en/20120412/001-110299fulltext_nocitations.txt'
p3665
aS'../data/echr-copy-1/36772_02/jud_en/20110125/001-102991fulltext_nocitations.txt'
p3666
aS'../data/echr-copy-1/29921_96/jud_en/20001024/001-58902fulltext_nocitations.txt'
p3667
aS'../data/echr-copy-1/72520_01/jud_en/20051222/001-71810fulltext_nocitations.txt'
p3668
aS'../data/echr-copy-1/10486_83/jud_en/19890524/001-57500fulltext_nocitations.txt'
p3669
aS'../data/echr-copy-1/37395_97/jud_en/20101026/001-101425fulltext_nocitations.txt'
p3670
aS'../data/echr-copy-1/69498_01/jud_en/20040713/001-61900fulltext_nocitations.txt'
p3671
aS'../data/echr-copy-1/14518_89/jud_en/19950131/001-57922fulltext_nocitations.txt'
p3672
aS'../data/echr-copy-1/18557_06/jud_en/20070712/001-81651fulltext_nocitations.txt'
p3673
aS'../data/echr-copy-1/18255_05/jud_en/20101028/001-101329fulltext_nocitations.txt'
p3674
aS'../data/echr-copy-1/25181_94/jud_en/19980825/001-59366fulltext_nocitations.txt'
p3675
aS'../data/echr-copy-1/74816_01/jud_en/20030325/001-60983fulltext_nocitations.txt'
p3676
aS'../data/echr-copy-1/13210_05/jud_en/20121023/001-113978fulltext_nocitations.txt'
p3677
aS'../data/echr-copy-1/37019_97/jud_en/19991214/001-58379fulltext_nocitations.txt'
p3678
aS'../data/echr-copy-1/13007_02/jud_en/20061031/001-77757fulltext_nocitations.txt'
p3679
aS'../data/echr-copy-1/78008_01/jud_en/20041021/001-67171fulltext_nocitations.txt'
p3680
aS'../data/echr-copy-1/35605_97/jud_en/20020528/001-60487fulltext_nocitations.txt'
p3681
aS'../data/echr-copy-1/54169_00/jud_en/20080108/001-84277fulltext_nocitations.txt'
p3682
aS'../data/echr-copy-1/23556_94/jud_en/19990708/001-58270fulltext_nocitations.txt'
p3683
aS'../data/echr-copy-1/19558_09/jud_en/20120612/001-111422fulltext_nocitations.txt'
p3684
aS'../data/echr-copy-1/34044_96/jud_en/20010322/001-59353fulltext_nocitations.txt'
p3685
aS'../data/echr-copy-1/42184_05/jud_en/20100316/001-97704fulltext_nocitations.txt'
p3686
aS'../data/echr-copy-1/5953_02/jud_en/20070426/001-80284fulltext_nocitations.txt'
p3687
aS'../data/echr-copy-1/33307_02/jud_en/20080513/001-86227fulltext_nocitations.txt'
p3688
aS'../data/echr-copy-1/20652_92/jud_en/20030220/001-60953fulltext_nocitations.txt'
p3689
aS'../data/echr-copy-1/57448_00/jud_en/20040205/001-61620fulltext_nocitations.txt'
p3690
aS'../data/echr-copy-1/22676_93/jud_en/20001214/001-59081fulltext_nocitations.txt'
p3691
aS'../data/echr-copy-1/39547_98/jud_en/20030227/001-60963fulltext_nocitations.txt'
p3692
aS'../data/echr-copy-1/19776_92/jud_en/19960625/001-57988fulltext_nocitations.txt'
p3693
aS'../data/echr-copy-1/18310_06/jud_en/20131105/001-127610fulltext_nocitations.txt'
p3694
aS'../data/echr-copy-1/55853_00/jud_en/20050208/001-68178fulltext_nocitations.txt'
p3695
aS'../data/echr-copy-1/23379_94/jud_en/20030123/001-60896fulltext_nocitations.txt'
p3696
aS'../data/echr-copy-1/16404_03/jud_en/20090219/001-91401fulltext_nocitations.txt'
p3697
aS'../data/echr-copy-1/26103_95/jud_en/19990121/001-58908fulltext_nocitations.txt'
p3698
aS'../data/echr-copy-1/35349_05/jud_en/20080717/001-87460fulltext_nocitations.txt'
p3699
aS'../data/echr-copy-1/29287_02/jud_en/20081014/001-88899fulltext_nocitations.txt'
p3700
aS'../data/echr-copy-1/64705_01/jud_en/20060329/001-72932fulltext_nocitations.txt'
p3701
aS'../data/echr-copy-1/43622_98/jud_en/20010301/001-59267fulltext_nocitations.txt'
p3702
aS'../data/echr-copy-1/56271_00/jud_en/20050217/001-68348fulltext_nocitations.txt'
p3703
aS'../data/echr-copy-1/32220_96/jud_en/20001012/001-58859fulltext_nocitations.txt'
p3704
aS'../data/echr-copy-1/44068_02/jud_en/20060613/001-75731fulltext_nocitations.txt'
p3705
aS'../data/echr-copy-1/33097_96/jud_en/20040603/001-61805fulltext_nocitations.txt'
p3706
aS'../data/echr-copy-1/71243_01/jud_en/20140325/001-142270fulltext_nocitations.txt'
p3707
aS'../data/echr-copy-1/15576_89/jud_en/19910320/001-57674fulltext_nocitations.txt'
p3708
aS'../data/echr-copy-1/27353_95/jud_en/20000328/001-58526fulltext_nocitations.txt'
p3709
aS'../data/echr-copy-1/48155_06/jud_en/20120410/001-110258fulltext_nocitations.txt'
p3710
aS'../data/echr-copy-1/34438_04/jud_en/20090416/001-92246fulltext_nocitations.txt'
p3711
aS'../data/echr-copy-1/11146_11/jud_en/20130129/001-116124fulltext_nocitations.txt'
p3712
aS'../data/echr-copy-1/16463_09/jud_en/20110510/001-104754fulltext_nocitations.txt'
p3713
aS'../data/echr-copy-1/41228_02/jud_en/20060706/001-76267fulltext_nocitations.txt'
p3714
aS'../data/echr-copy-1/14704_03/jud_en/20110317/001-103996fulltext_nocitations.txt'
p3715
aS'../data/echr-copy-1/66289_01/jud_en/20050111/001-67928fulltext_nocitations.txt'
p3716
aS'../data/echr-copy-1/9186_80/jud_en/19870914/001-57464fulltext_nocitations.txt'
p3717
aS'../data/echr-copy-1/33914_02/jud_en/20051201/001-71451fulltext_nocitations.txt'
p3718
aS'../data/echr-copy-1/29846_05/jud_en/20110621/001-105181fulltext_nocitations.txt'
p3719
aS'../data/echr-copy-1/32559_96/jud_en/20030715/001-61210fulltext_nocitations.txt'
p3720
aS'../data/echr-copy-1/29731_96/jud_en/20010213/001-59211fulltext_nocitations.txt'
p3721
aS'../data/echr-copy-1/41408_04/jud_en/20120313/001-109518fulltext_nocitations.txt'
p3722
aS'../data/echr-copy-1/12868_87/jud_en/19950928/001-57937fulltext_nocitations.txt'
p3723
aS'../data/echr-copy-1/37376_05/jud_en/20090929/001-94404fulltext_nocitations.txt'
p3724
aS'../data/echr-copy-1/32962_96/jud_en/20010925/001-59670fulltext_nocitations.txt'
p3725
aS'../data/echr-copy-1/35350_05/jud_en/20111011/001-106778fulltext_nocitations.txt'
p3726
aS'../data/echr-copy-1/26637_95/jud_en/19980219/001-58131fulltext_nocitations.txt'
p3727
aS'../data/echr-copy-1/60665_00/jud_en/20051201/001-71439fulltext_nocitations.txt'
p3728
aS'../data/echr-copy-1/5310_71/jud_en/19780118/001-57506fulltext_nocitations.txt'
p3729
aS'../data/echr-copy-1/21911_03/jud_en/20090324/001-91885fulltext_nocitations.txt'
p3730
aS'../data/echr-copy-1/47095_99/jud_en/20020715/001-60606fulltext_nocitations.txt'
p3731
aS'../data/echr-copy-1/25498_94/jud_en/20000928/001-58818fulltext_nocitations.txt'
p3732
aS'../data/echr-copy-1/13323_02/jud_en/20051220/001-71738fulltext_nocitations.txt'
p3733
aS'../data/echr-copy-1/7272_09/jud_en/20120327/001-109917fulltext_nocitations.txt'
p3734
aS'../data/echr-copy-1/24959_06/jud_en/20110531/001-104921fulltext_nocitations.txt'
p3735
aS'../data/echr-copy-1/67534_01/jud_en/20040727/001-61946fulltext_nocitations.txt'
p3736
aS'../data/echr-copy-1/2192_03/jud_en/20060711/001-76300fulltext_nocitations.txt'
p3737
aS'../data/echr-copy-1/25803_94/jud_en/19990728/001-58287fulltext_nocitations.txt'
p3738
aS'../data/echr-copy-1/61998_00/jud_en/20031211/001-61531fulltext_nocitations.txt'
p3739
aS'../data/echr-copy-1/44713_98/jud_en/20050920/001-70204fulltext_nocitations.txt'
p3740
aS'../data/echr-copy-1/49198_10/jud_en/20131105/001-127618fulltext_nocitations.txt'
p3741
aS'../data/echr-copy-1/13590_88/jud_en/19920325/001-57771fulltext_nocitations.txt'
p3742
aS'../data/echr-copy-1/74456_01/jud_en/20050517/001-69035fulltext_nocitations.txt'
p3743
aS'../data/echr-copy-1/23806_03/jud_en/20090224/001-91475fulltext_nocitations.txt'
p3744
aS'../data/echr-copy-1/50516_99/jud_en/20020514/001-60453fulltext_nocitations.txt'
p3745
aS'../data/echr-copy-1/39221_98/jud_en/20000713/001-58752fulltext_nocitations.txt'
p3746
aS'../data/echr-copy-1/543_03/jud_en/20061003/001-77177fulltext_nocitations.txt'
p3747
aS'../data/echr-copy-1/21040_02/jud_en/20060810/001-76714fulltext_nocitations.txt'
p3748
aS'../data/echr-copy-1/23926_02/jud_en/20060713/001-76335fulltext_nocitations.txt'
p3749
aS'../data/echr-copy-1/51564_99/jud_en/20020205/001-60026fulltext_nocitations.txt'
p3750
aS'../data/echr-copy-1/18944_02/jud_en/20060404/001-73012fulltext_nocitations.txt'
p3751
aS'../data/echr-copy-1/9668_06/jud_en/20110118/001-102864fulltext_nocitations.txt'
p3752
aS'../data/echr-copy-1/12325_86/jud_en/19931102/001-57853fulltext_nocitations.txt'
p3753
aS'../data/echr-copy-1/9286_04/jud_en/20080722/001-87739fulltext_nocitations.txt'
p3754
aS'../data/echr-copy-1/38581_97/jud_en/20050531/001-69212fulltext_nocitations.txt'
p3755
aS'../data/echr-copy-1/34578_97/jud_en/20000731/001-58781fulltext_nocitations.txt'
p3756
aS'../data/echr-copy-1/8130_78/jud_en/19830621/001-57475fulltext_nocitations.txt'
p3757
aS'../data/echr-copy-1/12433_86/jud_en/19920615/001-57784fulltext_nocitations.txt'
p3758
aS'../data/echr-copy-1/33492_96/jud_en/20001221/001-59096fulltext_nocitations.txt'
p3759
aS'../data/echr-copy-1/68448_01/jud_en/20060323/001-72858fulltext_nocitations.txt'
p3760
aS'../data/echr-copy-1/31881_96/jud_en/20010925/001-59671fulltext_nocitations.txt'
p3761
aS'../data/echr-copy-1/29660_03/jud_en/20071108/001-83120fulltext_nocitations.txt'
p3762
aS'../data/echr-copy-1/9990_82/jud_en/19871202/001-57447fulltext_nocitations.txt'
p3763
aS'../data/echr-copy-1/52478_99/jud_en/20040427/001-61741fulltext_nocitations.txt'
p3764
aS'../data/echr-copy-1/35062_03/jud_en/20070118/001-79142fulltext_nocitations.txt'
p3765
aS'../data/echr-copy-1/12919_87/jud_en/19921012/001-57768fulltext_nocitations.txt'
p3766
aS'../data/echr-copy-1/14379_88/jud_en/19930126/001-57817fulltext_nocitations.txt'
p3767
aS'../data/echr-copy-1/21199_03/jud_en/20101102/001-101489fulltext_nocitations.txt'
p3768
aS'../data/echr-copy-1/31247_96/jud_en/20041221/001-67765fulltext_nocitations.txt'
p3769
aS'../data/echr-copy-1/36103_04/jud_en/20110315/001-103925fulltext_nocitations.txt'
p3770
aS'../data/echr-copy-1/29508_04/jud_en/20061207/001-78406fulltext_nocitations.txt'
p3771
aS'../data/echr-copy-1/52812_07/jud_en/20110628/001-105404fulltext_nocitations.txt'
p3772
aS'../data/echr-copy-1/23139_07/jud_en/20120424/001-110450fulltext_nocitations.txt'
p3773
aS'../data/echr-copy-1/1051_06/jud_en/20120124/001-108754fulltext_nocitations.txt'
p3774
aS'../data/echr-copy-1/28883_95/jud_en/20010504/001-59451fulltext_nocitations.txt'
p3775
aS'../data/echr-copy-1/27846_05/jud_en/20071018/001-82829fulltext_nocitations.txt'
p3776
aS'../data/echr-copy-1/62435_00/jud_en/20030617/001-61149fulltext_nocitations.txt'
p3777
aS'../data/echr-copy-1/17748_91/jud_en/19961023/001-58067fulltext_nocitations.txt'
p3778
aS'../data/echr-copy-1/14996_05/jud_en/20080327/001-85563fulltext_nocitations.txt'
p3779
aS'../data/echr-copy-1/34656_03/jud_en/20090922/001-94129fulltext_nocitations.txt'
p3780
aS'../data/echr-copy-1/18535_91/jud_en/19941027/001-57904fulltext_nocitations.txt'
p3781
aS'../data/echr-copy-1/73283_01/jud_en/20071120/001-83402fulltext_nocitations.txt'
p3782
aS'../data/echr-copy-1/4504_04/jud_en/20060601/001-75637fulltext_nocitations.txt'
p3783
aS'../data/echr-copy-1/32455_02/jud_en/20060418/001-73375fulltext_nocitations.txt'
p3784
aS'../data/echr-copy-1/12718_87/jud_en/19980305/001-58142fulltext_nocitations.txt'
p3785
aS'../data/echr-copy-1/21363_93/jud_en/19971030/001-58111fulltext_nocitations.txt'
p3786
aS'../data/echr-copy-1/14934_03/jud_en/20090716/001-93602fulltext_nocitations.txt'
p3787
aS'../data/echr-copy-1/61967_00/jud_en/20071106/001-83089fulltext_nocitations.txt'
p3788
aS'../data/echr-copy-1/33071_96/jud_en/20010712/001-59590fulltext_nocitations.txt'
p3789
aS'../data/echr-copy-1/33218_96/jud_en/20021126/001-60781fulltext_nocitations.txt'
p3790
aS'../data/echr-copy-1/9271_07/jud_en/20110315/001-103940fulltext_nocitations.txt'
p3791
aS'../data/echr-copy-1/10877_04/jud_en/20081023/001-89066fulltext_nocitations.txt'
p3792
aS'../data/echr-copy-1/49636_99/jud_en/20030213/001-60941fulltext_nocitations.txt'
p3793
aS'../data/echr-copy-1/1926_03/jud_en/20090623/001-93166fulltext_nocitations.txt'
p3794
aS'../data/echr-copy-1/23667_06/jud_en/20081113/001-89581fulltext_nocitations.txt'
p3795
aS'../data/echr-copy-1/31556_03/jud_en/20081211/001-90091fulltext_nocitations.txt'
p3796
aS'../data/echr-copy-1/37453_97/jud_en/20010626/001-59528fulltext_nocitations.txt'
p3797
aS'../data/echr-copy-1/28973_11/jud_en/20121108/001-114276fulltext_nocitations.txt'
p3798
aS'../data/echr-copy-1/25444_94/jud_en/19990325/001-58226fulltext_nocitations.txt'
p3799
aS'../data/echr-copy-1/6282_06/jud_en/20120918/001-113134fulltext_nocitations.txt'
p3800
aS'../data/echr-copy-1/39206_07/jud_en/20120131/001-108856fulltext_nocitations.txt'
p3801
aS'../data/echr-copy-1/20824_09/jud_en/20131031/001-127407fulltext_nocitations.txt'
p3802
aS'../data/echr-copy-1/28213_95/jud_en/19980923/001-58237fulltext_nocitations.txt'
p3803
aS'../data/echr-copy-1/17549_90/jud_en/19940128/001-57868fulltext_nocitations.txt'
p3804
aS'../data/echr-copy-1/20315_04/jud_en/20081113/001-89586fulltext_nocitations.txt'
p3805
aS'../data/echr-copy-1/25116_94/jud_en/20010213/001-59210fulltext_nocitations.txt'
p3806
aS'../data/echr-copy-1/20824_02/jud_en/20080410/001-85777fulltext_nocitations.txt'
p3807
aS'../data/echr-copy-1/38794_97/jud_en/20020723/001-60629fulltext_nocitations.txt'
p3808
aS'../data/echr-copy-1/34539_02/jud_en/20060207/001-72289fulltext_nocitations.txt'
p3809
aS'../data/echr-copy-1/50385_99/jud_en/20041220/001-67820fulltext_nocitations.txt'
p3810
aS'../data/echr-copy-1/2747_02/jud_en/20100708/001-99802fulltext_nocitations.txt'
p3811
aS'../data/echr-copy-1/13067_03/jud_en/20100216/001-97232fulltext_nocitations.txt'
p3812
aS'../data/echr-copy-1/23459_94/jud_en/20010130/001-59165fulltext_nocitations.txt'
p3813
aS'../data/echr-copy-1/40892_98/jud_en/20030930/001-61317fulltext_nocitations.txt'
p3814
aS'../data/echr-copy-1/35072_97/jud_en/20050726/001-69915fulltext_nocitations.txt'
p3815
aS'../data/echr-copy-1/22666_08/jud_en/20091126/001-95880fulltext_nocitations.txt'
p3816
aS'../data/echr-copy-1/40962_04/jud_en/20120313/001-109550fulltext_nocitations.txt'
p3817
aS'../data/echr-copy-1/28359_05/jud_en/20121211/001-115210fulltext_nocitations.txt'
p3818
aS'../data/echr-copy-1/11830_03/jud_en/20080729/001-88014fulltext_nocitations.txt'
p3819
aS'../data/echr-copy-1/5193_09/jud_en/20111103/001-107303fulltext_nocitations.txt'
p3820
aS'../data/echr-copy-1/21894_93/jud_en/20050324/001-68601fulltext_nocitations.txt'
p3821
aS'../data/echr-copy-1/29784_07/jud_en/20130718/001-122427fulltext_nocitations.txt'
p3822
aS'../data/echr-copy-1/3932_02/jud_en/20090526/001-92667fulltext_nocitations.txt'
p3823
aS'../data/echr-copy-1/43352_98/jud_en/20021001/001-60655fulltext_nocitations.txt'
p3824
aS'../data/echr-copy-1/34211_04/jud_en/20090219/001-91373fulltext_nocitations.txt'
p3825
aS'../data/echr-copy-1/11581_85/jud_en/19901023/001-57642fulltext_nocitations.txt'
p3826
aS'../data/echr-copy-1/1813_07/jud_en/20120209/001-109046fulltext_nocitations.txt'
p3827
aS'../data/echr-copy-1/32662_96/jud_en/20021219/001-60842fulltext_nocitations.txt'
p3828
aS'../data/echr-copy-1/31725_96/jud_en/20010320/001-59348fulltext_nocitations.txt'
p3829
aS'../data/echr-copy-1/48684_99/jud_en/20020618/001-60512fulltext_nocitations.txt'
p3830
aS'../data/echr-copy-1/29545_06/jud_en/20101207/001-102157fulltext_nocitations.txt'
p3831
aS'../data/echr-copy-1/45214_99/jud_en/20050524/001-69136fulltext_nocitations.txt'
p3832
aS'../data/echr-copy-1/5108_02/jud_en/20080117/001-84450fulltext_nocitations.txt'
p3833
aS'../data/echr-copy-1/2295_06/jud_en/20091015/001-95035fulltext_nocitations.txt'
p3834
aS'../data/echr-copy-1/23763_94/jud_en/19990708/001-58289fulltext_nocitations.txt'
p3835
aS'../data/echr-copy-1/36391_02/jud_en/20081127/001-89893fulltext_nocitations.txt'
p3836
aS'../data/echr-copy-1/20688_04/jud_en/20131217/001-139773fulltext_nocitations.txt'
p3837
aS'../data/echr-copy-1/13467_05/jud_en/20090922/001-94117fulltext_nocitations.txt'
p3838
aS'../data/echr-copy-1/32940_08/jud_en/20100413/001-98259fulltext_nocitations.txt'
p3839
aS'../data/echr-copy-1/21986_93/jud_en/20000627/001-58735fulltext_nocitations.txt'
p3840
aS'../data/echr-copy-1/12316_07/jud_en/20131031/001-127403fulltext_nocitations.txt'
p3841
aS'../data/echr-copy-1/19134_05/jud_en/20070731/001-82059fulltext_nocitations.txt'
p3842
aS'../data/echr-copy-1/26692_05/jud_en/20120320/001-109741fulltext_nocitations.txt'
p3843
aS'../data/echr-copy-1/8544_79/jud_en/19841023/001-57552fulltext_nocitations.txt'
p3844
aS'../data/echr-copy-1/31107_96/jud_en/20001019/001-59087fulltext_nocitations.txt'
p3845
aS'../data/echr-copy-1/18378_03/jud_en/20051129/001-71339fulltext_nocitations.txt'
p3846
aS'../data/echr-copy-1/35527_04/jud_en/20100518/001-98533fulltext_nocitations.txt'
p3847
aS'../data/echr-copy-1/41833_04/jud_en/20110127/001-103088fulltext_nocitations.txt'
p3848
aS'../data/echr-copy-1/29699_96/jud_en/20020207/001-60032fulltext_nocitations.txt'
p3849
aS'../data/echr-copy-1/58971_00/jud_en/20061102/001-77782fulltext_nocitations.txt'
p3850
aS'../data/echr-copy-1/28135_95/jud_en/20000606/001-58837fulltext_nocitations.txt'
p3851
aS'../data/echr-copy-1/52806_09/jud_en/20131205/001-138597fulltext_nocitations.txt'
p3852
aS'../data/echr-copy-1/2040_06/jud_en/20110621/001-105047fulltext_nocitations.txt'
p3853
aS'../data/echr-copy-1/45566_08/jud_en/20121120/001-114652fulltext_nocitations.txt'
p3854
aS'../data/echr-copy-1/53466_07/jud_en/20110524/001-104858fulltext_nocitations.txt'
p3855
aS'../data/echr-copy-1/50034_99/jud_en/20030116/001-60886fulltext_nocitations.txt'
p3856
aS'../data/echr-copy-1/13418_03/jud_en/20120124/001-108756fulltext_nocitations.txt'
p3857
aS'../data/echr-copy-1/60115_00/jud_en/20040420/001-61716fulltext_nocitations.txt'
p3858
aS'../data/echr-copy-1/8721_05/jud_en/20070327/001-79910fulltext_nocitations.txt'
p3859
aS'../data/echr-copy-1/25657_94/jud_en/20010710/001-59562fulltext_nocitations.txt'
p3860
aS'../data/echr-copy-1/16999_04/jud_en/20090127/001-90933fulltext_nocitations.txt'
p3861
aS'../data/echr-copy-1/9120_80/jud_en/19861124/001-57588fulltext_nocitations.txt'
p3862
aS'../data/echr-copy-1/54705_08/jud_en/20110120/001-102955fulltext_nocitations.txt'
p3863
aS'../data/echr-copy-1/28025_03/jud_en/20081002/001-88671fulltext_nocitations.txt'
p3864
aS'../data/echr-copy-1/20390_92/jud_en/19980710/001-58195fulltext_nocitations.txt'
p3865
aS'../data/echr-copy-1/54822_00/jud_en/20030527/001-61101fulltext_nocitations.txt'
p3866
aS'../data/echr-copy-1/52782_99/jud_en/20060411/001-73169fulltext_nocitations.txt'
p3867
aS'../data/echr-copy-1/55674_00/jud_en/20030410/001-61022fulltext_nocitations.txt'
p3868
aS'../data/echr-copy-1/34720_97/jud_en/20001221/001-59097fulltext_nocitations.txt'
p3869
aS'../data/echr-copy-1/22083_93/jud_en/19961022/001-58079fulltext_nocitations.txt'
p3870
aS'../data/echr-copy-1/20524_92/jud_en/19960326/001-57972fulltext_nocitations.txt'
p3871
aS'../data/echr-copy-1/29459_10/jud_en/20111103/001-107307fulltext_nocitations.txt'
p3872
aS'../data/echr-copy-1/27229_95/jud_en/20010403/001-59365fulltext_nocitations.txt'
p3873
aS'../data/echr-copy-1/37046_03/jud_en/20091013/001-94961fulltext_nocitations.txt'
p3874
aS'../data/echr-copy-1/10017_10/jud_en/20131010/001-126636fulltext_nocitations.txt'
p3875
aS'../data/echr-copy-1/39272_98/jud_en/20031204/001-61521fulltext_nocitations.txt'
p3876
aS'../data/echr-copy-1/39013_05/jud_en/20070731/001-82061fulltext_nocitations.txt'
p3877
aS'../data/echr-copy-1/12850_87/jud_en/19920827/001-57796fulltext_nocitations.txt'
p3878
aS'../data/echr-copy-1/10597_03/jud_en/20081113/001-89531fulltext_nocitations.txt'
p3879
aS'../data/echr-copy-1/43393_98/jud_en/20061102/001-77778fulltext_nocitations.txt'
p3880
aS'../data/echr-copy-1/29979_04/jud_en/20111020/001-107088fulltext_nocitations.txt'
p3881
aS'../data/echr-copy-1/31549_96/jud_en/20060406/001-73077fulltext_nocitations.txt'
p3882
aS'../data/echr-copy-1/19382_92/jud_en/19950713/001-57946fulltext_nocitations.txt'
p3883
aS'../data/echr-copy-1/29183_95/jud_en/19990121/001-58906fulltext_nocitations.txt'
p3884
aS'../data/echr-copy-1/17788_02/jud_en/20070621/001-81242fulltext_nocitations.txt'
p3885
aS'../data/echr-copy-1/14338_03/jud_en/20060328/001-72898fulltext_nocitations.txt'
p3886
aS'../data/echr-copy-1/63767_00/jud_en/20070109/001-78884fulltext_nocitations.txt'
p3887
aS'../data/echr-copy-1/45712_99/jud_en/20050726/001-69895fulltext_nocitations.txt'
p3888
aS'../data/echr-copy-1/36989_05/jud_en/20090324/001-91800fulltext_nocitations.txt'
p3889
aS'../data/echr-copy-1/19798_04/jud_en/20060601/001-75640fulltext_nocitations.txt'
p3890
aS'../data/echr-copy-1/26760_95/jud_en/20011115/001-59880fulltext_nocitations.txt'
p3891
aS'../data/echr-copy-1/50326_99/jud_en/20050428/001-68928fulltext_nocitations.txt'
p3892
aS'../data/echr-copy-1/43482_02/jud_en/20070201/001-79293fulltext_nocitations.txt'
p3893
aS'../data/echr-copy-1/23960_02/jud_en/20080110/001-84319fulltext_nocitations.txt'
p3894
aS'../data/echr-copy-1/34630_07/jud_en/20100713/001-99903fulltext_nocitations.txt'
p3895
aS'../data/echr-copy-1/9248_81/jud_en/19870326/001-57519fulltext_nocitations.txt'
p3896
aS'../data/echr-copy-1/7299_75/jud_en/19831024/001-57421fulltext_nocitations.txt'
p3897
aS'../data/echr-copy-1/33732_96/jud_en/20001219/001-59089fulltext_nocitations.txt'
p3898
aS'../data/echr-copy-1/32542_96/jud_en/20021115/001-60757fulltext_nocitations.txt'
p3899
aS'../data/echr-copy-1/22373_04/jud_en/20121023/001-114076fulltext_nocitations.txt'
p3900
aS'../data/echr-copy-1/53924_00/jud_en/20040708/001-61887fulltext_nocitations.txt'
p3901
aS'../data/echr-copy-1/48095_99/jud_en/20050414/001-68800fulltext_nocitations.txt'
p3902
aS'../data/echr-copy-1/46720_99/jud_en/20050630/001-69560fulltext_nocitations.txt'
p3903
aS'../data/echr-copy-1/18984_91/jud_en/19950927/001-57943fulltext_nocitations.txt'
p3904
aS'../data/echr-copy-1/39424_02/jud_en/20080207/001-84959fulltext_nocitations.txt'
p3905
aS'../data/echr-copy-1/40154_98/jud_en/20040720/001-61923fulltext_nocitations.txt'
p3906
aS'../data/echr-copy-1/68335_10/jud_en/20130627/001-121569fulltext_nocitations.txt'
p3907
aS'../data/echr-copy-1/61260_08/jud_en/20100520/001-98829fulltext_nocitations.txt'
p3908
aS'../data/echr-copy-1/22592_02/jud_en/20041005/001-66841fulltext_nocitations.txt'
p3909
aS'../data/echr-copy-1/36258_97/jud_en/20040406/001-61691fulltext_nocitations.txt'
p3910
aS'../data/echr-copy-1/31438_06/jud_en/20100202/001-97064fulltext_nocitations.txt'
p3911
aS'../data/echr-copy-1/7975_07/jud_en/20100112/001-96581fulltext_nocitations.txt'
p3912
aS'../data/echr-copy-1/13146_02/jud_en/20070703/001-81368fulltext_nocitations.txt'
p3913
aS'../data/echr-copy-1/47486_07/jud_en/20100715/001-99867fulltext_nocitations.txt'
p3914
aS'../data/echr-copy-1/45289_99/jud_en/20060629/001-76085fulltext_nocitations.txt'
p3915
aS'../data/echr-copy-1/69481_01/jud_en/20060727/001-76493fulltext_nocitations.txt'
p3916
aS'../data/echr-copy-1/12145_86/jud_en/19920227/001-57734fulltext_nocitations.txt'
p3917
aS'../data/echr-copy-1/46726_11/jud_en/20131003/001-126551fulltext_nocitations.txt'
p3918
aS'../data/echr-copy-1/3475_03/jud_en/20090625/001-93239fulltext_nocitations.txt'
p3919
aS'../data/echr-copy-1/33066_04/jud_en/20081007/001-88719fulltext_nocitations.txt'
p3920
aS'../data/echr-copy-1/3906_06/jud_en/20070628/001-81350fulltext_nocitations.txt'
p3921
aS'../data/echr-copy-1/39188_04/jud_en/20090219/001-91368fulltext_nocitations.txt'
p3922
aS'../data/echr-copy-1/50360_08/jud_en/20101214/001-102270fulltext_nocitations.txt'
p3923
aS'../data/echr-copy-1/34120_96/jud_en/20001005/001-58844fulltext_nocitations.txt'
p3924
aS'../data/echr-copy-1/33014_05/jud_en/20110505/001-104685fulltext_nocitations.txt'
p3925
aS'../data/echr-copy-1/4171_03/jud_en/20060615/001-75834fulltext_nocitations.txt'
p3926
aS'../data/echr-copy-1/51545_99/jud_en/20050215/001-68231fulltext_nocitations.txt'
p3927
aS'../data/echr-copy-1/40035_98/jud_en/20000711/001-58900fulltext_nocitations.txt'
p3928
aS'../data/echr-copy-1/7054_10/jud_en/20140227/001-141159fulltext_nocitations.txt'
p3929
aS'../data/echr-copy-1/8673_05/jud_en/20091201/001-118248fulltext_nocitations.txt'
p3930
aS'../data/echr-copy-1/36274_08/jud_en/20130305/001-116975fulltext_nocitations.txt'
p3931
aS'../data/echr-copy-1/13099_04/jud_en/20111018/001-107028fulltext_nocitations.txt'
p3932
aS'../data/echr-copy-1/31871_96/jud_en/20030708/001-61195fulltext_nocitations.txt'
p3933
aS'../data/echr-copy-1/75975_01/jud_en/20061031/001-77740fulltext_nocitations.txt'
p3934
aS'../data/echr-copy-1/12398_86/jud_en/19910426/001-57676fulltext_nocitations.txt'
p3935
aS'../data/echr-copy-1/14838_89/jud_en/19931123/001-57848fulltext_nocitations.txt'
p3936
aS'../data/echr-copy-1/35394_97/jud_en/20000512/001-58841fulltext_nocitations.txt'
p3937
aS'../data/echr-copy-1/21592_93/jud_en/19971003/001-58101fulltext_nocitations.txt'
p3938
aS'../data/echr-copy-1/38891_06/jud_en/20100330/001-97999fulltext_nocitations.txt'
p3939
aS'../data/echr-copy-1/24541_94/jud_en/20020618/001-60507fulltext_nocitations.txt'
p3940
aS'../data/echr-copy-1/34151_04/jud_en/20080212/001-85004fulltext_nocitations.txt'
p3941
aS'../data/echr-copy-1/41775_06/jud_en/20120605/001-111171fulltext_nocitations.txt'
p3942
aS'../data/echr-copy-1/59653_00/jud_en/20091006/001-94731fulltext_nocitations.txt'
p3943
aS'../data/echr-copy-1/30633_06/jud_en/20101221/001-102429fulltext_nocitations.txt'
p3944
aS'../data/echr-copy-1/38016_07/jud_en/20091103/001-95590fulltext_nocitations.txt'
p3945
aS'../data/echr-copy-1/43854_98/jud_en/20070215/001-79488fulltext_nocitations.txt'
p3946
aS'../data/echr-copy-1/11855_85/jud_en/19900221/001-57638fulltext_nocitations.txt'
p3947
aS'../data/echr-copy-1/21353_93/jud_en/19971216/001-58125fulltext_nocitations.txt'
p3948
aS'../data/echr-copy-1/24295_94/jud_en/19960926/001-58057fulltext_nocitations.txt'
p3949
aS'../data/echr-copy-1/37778_04/jud_en/20080124/001-84621fulltext_nocitations.txt'
p3950
aS'../data/echr-copy-1/42180_02/jud_en/20070315/001-79804fulltext_nocitations.txt'
p3951
aS'../data/echr-copy-1/37439_97/jud_en/20000125/001-58588fulltext_nocitations.txt'
p3952
aS'../data/echr-copy-1/11891_85/jud_en/19910524/001-57717fulltext_nocitations.txt'
p3953
aS'../data/echr-copy-1/37763_04/jud_en/20090127/001-90963fulltext_nocitations.txt'
p3954
aS'../data/echr-copy-1/38523_02/jud_en/20060406/001-73114fulltext_nocitations.txt'
p3955
aS'../data/echr-copy-1/37801_97/jud_en/20030701/001-61178fulltext_nocitations.txt'
p3956
aS'../data/echr-copy-1/19075_91/jud_en/19960220/001-57985fulltext_nocitations.txt'
p3957
aS'../data/echr-copy-1/34320_96/jud_en/20020718/001-60620fulltext_nocitations.txt'
p3958
aS'../data/echr-copy-1/32492_96/jud_en/20000622/001-59194fulltext_nocitations.txt'
p3959
aS'../data/echr-copy-1/14038_88/jud_en/19890707/001-57619fulltext_nocitations.txt'
p3960
aS'../data/echr-copy-1/17584_04/jud_en/20060504/001-75317fulltext_nocitations.txt'
p3961
aS'../data/echr-copy-1/29226_03/jud_en/20120223/001-109226fulltext_nocitations.txt'
p3962
aS'../data/echr-copy-1/9562_81/jud_en/19870302/001-57541fulltext_nocitations.txt'
p3963
aS'../data/echr-copy-1/37700_05/jud_en/20091203/001-96018fulltext_nocitations.txt'
p3964
aS'../data/echr-copy-1/45097_05/jud_en/20090113/001-90573fulltext_nocitations.txt'
p3965
aS'../data/echr-copy-1/63378_00/jud_en/20050120/001-68067fulltext_nocitations.txt'
p3966
aS'../data/echr-copy-1/12312_05/jud_en/20100420/001-98355fulltext_nocitations.txt'
p3967
aS'../data/echr-copy-1/11039_02/jud_en/20051011/001-70530fulltext_nocitations.txt'
p3968
aS'../data/echr-copy-1/45211_99/jud_en/20041221/001-67768fulltext_nocitations.txt'
p3969
aS'../data/echr-copy-1/39810_98/jud_en/20030610/001-61129fulltext_nocitations.txt'
p3970
aS'../data/echr-copy-1/67793_10/jud_en/20130425/001-118737fulltext_nocitations.txt'
p3971
aS'../data/echr-copy-1/22107_93/jud_en/19970225/001-58016fulltext_nocitations.txt'
p3972
aS'../data/echr-copy-1/16982_05/jud_en/20090528/001-92776fulltext_nocitations.txt'
p3973
aS'../data/echr-copy-1/31926_96/jud_en/20010419/001-59416fulltext_nocitations.txt'
p3974
aS'../data/echr-copy-1/63566_00/jud_en/20060718/001-76457fulltext_nocitations.txt'
p3975
aS'../data/echr-copy-1/20134_05/jud_en/20120207/001-108957fulltext_nocitations.txt'
p3976
aS'../data/echr-copy-1/35485_05/jud_en/20110726/001-105823fulltext_nocitations.txt'
p3977
aS'../data/echr-copy-1/71912_01/jud_en/20090310/001-91636fulltext_nocitations.txt'
p3978
aS'../data/echr-copy-1/60750_00/jud_en/20040720/001-61926fulltext_nocitations.txt'
p3979
aS'../data/echr-copy-1/5952_07/jud_en/20111220/001-108220fulltext_nocitations.txt'
p3980
aS'../data/echr-copy-1/8345_05/jud_en/20100408/001-98161fulltext_nocitations.txt'
p3981
aS'../data/echr-copy-1/60132_00/jud_en/20061205/001-78279fulltext_nocitations.txt'
p3982
aS'../data/echr-copy-1/42310_04/jud_en/20110421/001-104613fulltext_nocitations.txt'
p3983
aS'../data/echr-copy-1/6301_73/jud_en/19811127/001-57596fulltext_nocitations.txt'
p3984
aS'../data/echr-copy-1/11068_04/jud_en/20100323/001-97863fulltext_nocitations.txt'
p3985
aS'../data/echr-copy-1/6356_04/jud_en/20060620/001-75896fulltext_nocitations.txt'
p3986
aS'../data/echr-copy-1/12106_09/jud_en/20111220/001-108162fulltext_nocitations.txt'
p3987
aS'../data/echr-copy-1/30210_96/jud_en/20001026/001-58920fulltext_nocitations.txt'
p3988
aS'../data/echr-copy-1/20937_07/jud_en/20080612/001-86963fulltext_nocitations.txt'
p3989
aS'../data/echr-copy-1/67039_01/jud_en/20060613/001-75725fulltext_nocitations.txt'
p3990
aS'../data/echr-copy-1/9261_02/jud_en/20100914/001-100401fulltext_nocitations.txt'
p3991
aS'../data/echr-copy-1/49747_11/jud_en/20121016/001-113719fulltext_nocitations.txt'
p3992
aS'../data/echr-copy-1/38736_04/jud_en/20070731/001-81996fulltext_nocitations.txt'
p3993
aS'../data/echr-copy-1/21462_04/jud_en/20060601/001-75642fulltext_nocitations.txt'
p3994
aS'../data/echr-copy-1/33132_02/jud_en/20060622/001-75978fulltext_nocitations.txt'
p3995
aS'../data/echr-copy-1/15869_02/jud_en/20100323/001-97879fulltext_nocitations.txt'
p3996
aS'../data/echr-copy-1/26124_03/jud_en/20120112/001-108573fulltext_nocitations.txt'
p3997
aS'../data/echr-copy-1/57176_00/jud_en/20090115/001-90647fulltext_nocitations.txt'
p3998
aS'../data/echr-copy-1/59450_00/jud_en/20060704/001-76169fulltext_nocitations.txt'
p3999
aS'../data/echr-copy-1/37095_97/jud_en/20020627/001-60541fulltext_nocitations.txt'
p4000
aS'../data/echr-copy-1/5718_10/jud_en/20130305/001-116942fulltext_nocitations.txt'
p4001
aS'../data/echr-copy-1/75888_01/jud_en/20060124/001-72156fulltext_nocitations.txt'
p4002
aS'../data/echr-copy-1/1371_03/jud_en/20070614/001-81089fulltext_nocitations.txt'
p4003
aS'../data/echr-copy-1/39822_07/jud_en/20110526/001-104893fulltext_nocitations.txt'
p4004
aS'../data/echr-copy-1/56698_00/jud_en/20041026/001-67196fulltext_nocitations.txt'
p4005
aS'../data/echr-copy-1/40132_02/jud_en/20061214/001-78509fulltext_nocitations.txt'
p4006
aS'../data/echr-copy-1/30742_03/jud_en/20091006/001-94739fulltext_nocitations.txt'
p4007
aS'../data/echr-copy-1/22947_93/jud_en/20001010/001-58905fulltext_nocitations.txt'
p4008
aS'../data/echr-copy-1/19823_92/jud_en/19940923/001-57911fulltext_nocitations.txt'
p4009
aS'../data/echr-copy-1/20303_07/jud_en/20110614/001-105110fulltext_nocitations.txt'
p4010
aS'../data/echr-copy-1/24735_94/jud_en/19990708/001-58281fulltext_nocitations.txt'
p4011
aS'../data/echr-copy-1/28940_95/jud_en/20080624/001-87175fulltext_nocitations.txt'
p4012
aS'../data/echr-copy-1/74550_12/jud_en/20131126/001-138571fulltext_nocitations.txt'
p4013
aS'../data/echr-copy-1/71551_01/jud_en/20041221/001-67762fulltext_nocitations.txt'
p4014
aS'../data/echr-copy-1/20727_04/jud_en/20090212/001-91323fulltext_nocitations.txt'
p4015
aS'../data/echr-copy-1/20161_06/jud_en/20100427/001-98443fulltext_nocitations.txt'
p4016
aS'../data/echr-copy-1/15649_05/jud_en/20100223/001-97411fulltext_nocitations.txt'
p4017
aS'../data/echr-copy-1/16969_90/jud_en/19940526/001-57881fulltext_nocitations.txt'
p4018
aS'../data/echr-copy-1/24254_03/jud_en/20080108/001-84279fulltext_nocitations.txt'
p4019
aS'../data/echr-copy-1/42083_98/jud_en/20031216/001-61546fulltext_nocitations.txt'
p4020
aS'../data/echr-copy-1/48191_99/jud_en/20080703/001-87321fulltext_nocitations.txt'
p4021
aS'../data/echr-copy-1/7436_02/jud_en/20071213/001-83961fulltext_nocitations.txt'
p4022
aS'../data/echr-copy-1/43402_02/jud_en/20050224/001-68412fulltext_nocitations.txt'
p4023
aS'../data/echr-copy-1/14226_04/jud_en/20100107/001-96567fulltext_nocitations.txt'
p4024
aS'../data/echr-copy-1/67335_01/jud_en/20060329/001-72927fulltext_nocitations.txt'
p4025
aS'../data/echr-copy-1/46221_99/jud_en/20050512/001-69022fulltext_nocitations.txt'
p4026
aS'../data/echr-copy-1/6847_02/jud_en/20051108/001-70865fulltext_nocitations.txt'
p4027
aS'../data/echr-copy-1/1377_04/jud_en/20140313/001-141624fulltext_nocitations.txt'
p4028
aS'../data/echr-copy-1/30342_96/jud_en/20000404/001-58536fulltext_nocitations.txt'
p4029
aS'../data/echr-copy-1/42281_02/jud_en/20060601/001-75608fulltext_nocitations.txt'
p4030
aS'../data/echr-copy-1/29202_95/jud_en/20001207/001-59074fulltext_nocitations.txt'
p4031
aS'../data/echr-copy-1/35014_97/jud_en/20080428/001-86137fulltext_nocitations.txt'
p4032
aS'../data/echr-copy-1/41902_04/jud_en/20091013/001-94981fulltext_nocitations.txt'
p4033
aS'../data/echr-copy-1/33004_07/jud_en/20110118/001-102886fulltext_nocitations.txt'
p4034
aS'../data/echr-copy-1/61391_00/jud_en/20080717/001-87456fulltext_nocitations.txt'
p4035
aS'../data/echr-copy-1/10174_02/jud_en/20051213/001-71603fulltext_nocitations.txt'
p4036
aS'../data/echr-copy-1/27225_05/jud_en/20101221/001-102381fulltext_nocitations.txt'
p4037
aS'../data/echr-copy-1/13190_87/jud_en/19931123/001-57857fulltext_nocitations.txt'
p4038
aS'../data/echr-copy-1/32644_96/jud_en/20021219/001-60841fulltext_nocitations.txt'
p4039
aS'../data/echr-copy-1/18731_91/jud_en/19960208/001-57980fulltext_nocitations.txt'
p4040
aS'../data/echr-copy-1/26386_02/jud_en/20080424/001-86030fulltext_nocitations.txt'
p4041
aS'../data/echr-copy-1/62208_00/jud_en/20050616/001-69392fulltext_nocitations.txt'
p4042
aS'../data/echr-copy-1/10947_04/jud_en/20080424/001-86050fulltext_nocitations.txt'
p4043
aS'../data/echr-copy-1/22880_93/jud_en/19980923/001-58243fulltext_nocitations.txt'
p4044
aS'../data/echr-copy-1/7367_76/jud_en/19801106/001-57498fulltext_nocitations.txt'
p4045
aS'../data/echr-copy-1/56717_00/jud_en/20031030/001-61417fulltext_nocitations.txt'
p4046
aS'../data/echr-copy-1/11209_84/jud_en/19890530/001-57449fulltext_nocitations.txt'
p4047
aS'../data/echr-copy-1/40518_98/jud_en/20040729/001-61957fulltext_nocitations.txt'
p4048
aS'../data/echr-copy-1/36376_04/jud_en/20100517/001-98669fulltext_nocitations.txt'
p4049
aS'../data/echr-copy-1/36760_06/jud_en/20120117/001-108690fulltext_nocitations.txt'
p4050
aS'../data/echr-copy-1/54810_00/jud_en/20060711/001-76307fulltext_nocitations.txt'
p4051
aS'../data/echr-copy-1/17038_04/jud_en/20110712/001-105630fulltext_nocitations.txt'
p4052
aS'../data/echr-copy-1/39229_03/jud_en/20110707/001-105478fulltext_nocitations.txt'
p4053
aS'../data/echr-copy-1/74266_01/jud_en/20090108/001-90426fulltext_nocitations.txt'
p4054
aS'../data/echr-copy-1/4922_04/jud_en/20091008/001-94861fulltext_nocitations.txt'
p4055
aS'../data/echr-copy-1/25965_04/jud_en/20100107/001-96549fulltext_nocitations.txt'
p4056
aS'../data/echr-copy-1/34960_04/jud_en/20111018/001-107014fulltext_nocitations.txt'
p4057
aS'../data/echr-copy-1/42252_02/jud_en/20060629/001-76125fulltext_nocitations.txt'
p4058
aS'../data/echr-copy-1/34155_96/jud_en/20040615/001-61814fulltext_nocitations.txt'
p4059
aS'../data/echr-copy-1/17419_90/jud_en/19961125/001-58080fulltext_nocitations.txt'
p4060
aS'../data/echr-copy-1/42343_98/jud_en/20030403/001-60992fulltext_nocitations.txt'
p4061
aS'../data/echr-copy-1/7051_06/jud_en/20110526/001-104886fulltext_nocitations.txt'
p4062
aS'../data/echr-copy-1/49608_08/jud_en/20110927/001-106436fulltext_nocitations.txt'
p4063
aS'../data/echr-copy-1/44286_06/jud_en/20101214/001-102223fulltext_nocitations.txt'
p4064
aS'../data/echr-copy-1/29439_02/jud_en/20050426/001-68886fulltext_nocitations.txt'
p4065
aS'../data/echr-copy-1/37112_97/jud_en/20011121/001-59886fulltext_nocitations.txt'
p4066
aS'../data/echr-copy-1/35052_04/jud_en/20090917/001-94088fulltext_nocitations.txt'
p4067
aS'../data/echr-copy-1/10890_84/jud_en/19900328/001-57623fulltext_nocitations.txt'
p4068
aS'../data/echr-copy-1/45744_08/jud_en/20101221/001-102393fulltext_nocitations.txt'
p4069
aS'../data/echr-copy-1/8347_05/jud_en/20100722/001-100033fulltext_nocitations.txt'
p4070
aS'../data/echr-copy-1/10496_83/jud_en/19880609/001-57569fulltext_nocitations.txt'
p4071
aS'../data/echr-copy-1/44521_04/jud_en/20080108/001-84289fulltext_nocitations.txt'
p4072
aS'../data/echr-copy-1/48939_99/jud_en/20041130/001-67614fulltext_nocitations.txt'
p4073
aS'../data/echr-copy-1/48297_99/jud_en/20020326/001-60344fulltext_nocitations.txt'
p4074
aS'../data/echr-copy-1/12598_86/jud_en/19910219/001-57663fulltext_nocitations.txt'
p4075
aS'../data/echr-copy-1/8805_79/jud_en/19840522/001-57466fulltext_nocitations.txt'
p4076
aS'../data/echr-copy-1/81099_12/jud_en/20140325/001-141946fulltext_nocitations.txt'
p4077
aS'../data/echr-copy-1/11548_04/jud_en/20071108/001-83131fulltext_nocitations.txt'
p4078
aS'../data/echr-copy-1/14077_05/jud_en/20091210/001-96189fulltext_nocitations.txt'
p4079
aS'../data/echr-copy-1/62552_10/jud_en/20140325/001-141944fulltext_nocitations.txt'
p4080
aS'../data/echr-copy-1/39050_97/jud_en/20030304/001-60964fulltext_nocitations.txt'
p4081
aS'../data/echr-copy-1/10563_83/jud_en/19880526/001-57477fulltext_nocitations.txt'
p4082
aS'../data/echr-copy-1/33505_96/jud_en/20020711/001-60602fulltext_nocitations.txt'
p4083
aS'../data/echr-copy-1/13071_06/jud_en/20130618/001-120954fulltext_nocitations.txt'
p4084
aS'../data/echr-copy-1/39311_05/jud_en/20090428/001-92500fulltext_nocitations.txt'
p4085
aS'../data/echr-copy-1/28114_95/jud_en/19990928/001-58306fulltext_nocitations.txt'
p4086
aS'../data/echr-copy-1/6011_10/jud_en/20140227/001-141191fulltext_nocitations.txt'
p4087
aS'../data/echr-copy-1/2312_08/jud_en/20130718/001-122716fulltext_nocitations.txt'
p4088
aS'../data/echr-copy-1/10523_02/jud_en/20060727/001-76497fulltext_nocitations.txt'
p4089
aS'../data/echr-copy-1/17851_91/jud_en/19960902/001-57949fulltext_nocitations.txt'
p4090
aS'../data/echr-copy-1/6833_74/jud_en/19790613/001-57534fulltext_nocitations.txt'
p4091
aS'../data/echr-copy-1/52515_99/jud_en/20080513/001-86255fulltext_nocitations.txt'
p4092
aS'../data/echr-copy-1/24528_02/jud_en/20090602/001-92829fulltext_nocitations.txt'
p4093
aS'../data/echr-copy-1/40453_98/jud_en/20031009/001-61335fulltext_nocitations.txt'
p4094
aS'../data/echr-copy-1/61019_00/jud_en/20070206/001-79340fulltext_nocitations.txt'
p4095
aS'../data/echr-copy-1/47148_99/jud_en/20050222/001-68373fulltext_nocitations.txt'
p4096
aS'../data/echr-copy-1/28971_95/jud_en/20000711/001-58749fulltext_nocitations.txt'
p4097
aS'../data/echr-copy-1/39846_98/jud_en/20011016/001-59722fulltext_nocitations.txt'
p4098
aS'../data/echr-copy-1/33706_05/jud_en/20070201/001-79320fulltext_nocitations.txt'
p4099
aS'../data/echr-copy-1/31320_05/jud_en/20090428/001-92503fulltext_nocitations.txt'
p4100
aS'../data/echr-copy-1/3344_04/jud_en/20080327/001-85581fulltext_nocitations.txt'
p4101
aS'../data/echr-copy-1/28394_95/jud_en/20021112/001-60737fulltext_nocitations.txt'
p4102
aS'../data/echr-copy-1/75697_01/jud_en/20060330/001-72975fulltext_nocitations.txt'
p4103
aS'../data/echr-copy-1/2737_04/jud_en/20090709/001-93515fulltext_nocitations.txt'
p4104
aS'../data/echr-copy-1/39437_98/jud_en/20060124/001-72146fulltext_nocitations.txt'
p4105
aS'../data/echr-copy-1/75705_01/jud_en/20060309/001-72710fulltext_nocitations.txt'
p4106
aS'../data/echr-copy-1/59601_09/jud_en/20130917/001-126355fulltext_nocitations.txt'
p4107
aS'../data/echr-copy-1/19813_03/jud_en/20081023/001-89011fulltext_nocitations.txt'
p4108
aS'../data/echr-copy-1/66083_01/jud_en/20060613/001-75715fulltext_nocitations.txt'
p4109
aS'../data/echr-copy-1/13163_87/jud_en/19911030/001-57713fulltext_nocitations.txt'
p4110
aS'../data/echr-copy-1/72286_01/jud_en/20060328/001-72886fulltext_nocitations.txt'
p4111
aS'../data/echr-copy-1/9749_82/jud_en/19880609/001-57599fulltext_nocitations.txt'
p4112
aS'../data/echr-copy-1/24720_04/jud_en/20110726/001-105805fulltext_nocitations.txt'
p4113
aS'../data/echr-copy-1/9580_81/jud_en/19880609/001-57503fulltext_nocitations.txt'
p4114
aS'../data/echr-copy-1/15722_05/jud_en/20121009/001-113752fulltext_nocitations.txt'
p4115
aS'../data/echr-copy-1/32984_96/jud_en/20031030/001-61421fulltext_nocitations.txt'
p4116
aS'../data/echr-copy-1/27061_95/jud_en/19980902/001-58235fulltext_nocitations.txt'
p4117
aS'../data/echr-copy-1/32541_96/jud_en/20020221/001-60150fulltext_nocitations.txt'
p4118
aS'../data/echr-copy-1/33734_06/jud_en/20091013/001-94957fulltext_nocitations.txt'
p4119
aS'../data/echr-copy-1/51837_99/jud_en/20050201/001-68110fulltext_nocitations.txt'
p4120
aS'../data/echr-copy-1/18748_91/jud_en/19960926/001-58071fulltext_nocitations.txt'
p4121
aS'../data/echr-copy-1/18990_91/jud_en/19970218/001-58199fulltext_nocitations.txt'
p4122
aS'../data/echr-copy-1/5962_03/jud_en/20091222/001-96484fulltext_nocitations.txt'
p4123
aS'../data/echr-copy-1/75098_01/jud_en/20030923/001-61301fulltext_nocitations.txt'
p4124
aS'../data/echr-copy-1/14805_02/jud_en/20130620/001-120963fulltext_nocitations.txt'
p4125
aS'../data/echr-copy-1/10249_03/jud_en/20090917/001-94135fulltext_nocitations.txt'
p4126
aS'../data/echr-copy-1/39778_07/jud_en/20101216/001-102296fulltext_nocitations.txt'
p4127
aS'../data/echr-copy-1/33954_05/jud_en/20131128/001-138573fulltext_nocitations.txt'
p4128
aS'../data/echr-copy-1/20999_05/jud_en/20110707/001-105284fulltext_nocitations.txt'
p4129
aS'../data/echr-copy-1/71503_01/jud_en/20040408/001-61875fulltext_nocitations.txt'
p4130
aS'../data/echr-copy-1/27915_95/jud_en/20000704/001-58739fulltext_nocitations.txt'
p4131
aS'../data/echr-copy-1/27685_04/jud_en/20110303/001-103654fulltext_nocitations.txt'
p4132
aS'../data/echr-copy-1/1586_05/jud_en/20090409/001-92114fulltext_nocitations.txt'
p4133
aS'../data/echr-copy-1/2954_07/jud_en/20100422/001-98383fulltext_nocitations.txt'
p4134
aS'../data/echr-copy-1/10398_04/jud_en/20081211/001-90190fulltext_nocitations.txt'
p4135
aS'../data/echr-copy-1/9815_82/jud_en/19860708/001-57523fulltext_nocitations.txt'
p4136
aS'../data/echr-copy-1/75695_01/jud_en/20060330/001-72974fulltext_nocitations.txt'
p4137
aS'../data/echr-copy-1/13797_02/jud_en/20060523/001-75466fulltext_nocitations.txt'
p4138
aS'../data/echr-copy-1/63181_00/jud_en/20050920/001-70182fulltext_nocitations.txt'
p4139
aS'../data/echr-copy-1/40653_98/jud_en/20040311/001-61679fulltext_nocitations.txt'
p4140
aS'../data/echr-copy-1/14448_88/jud_en/19931027/001-57850fulltext_nocitations.txt'
p4141
aS'../data/echr-copy-1/2914_02/jud_en/20080923/001-88529fulltext_nocitations.txt'
p4142
aS'../data/echr-copy-1/31105_05/jud_en/20081204/001-89909fulltext_nocitations.txt'
p4143
aS'../data/echr-copy-1/2202_05/jud_en/20081204/001-89902fulltext_nocitations.txt'
p4144
aS'../data/echr-copy-1/36772_06/jud_en/20110920/001-106288fulltext_nocitations.txt'
p4145
aS'../data/echr-copy-1/8658_79/jud_en/19860602/001-57442fulltext_nocitations.txt'
p4146
aS'../data/echr-copy-1/7525_76/jud_en/19830224/001-57472fulltext_nocitations.txt'
p4147
aS'../data/echr-copy-1/20348_92/jud_en/19960925/001-58076fulltext_nocitations.txt'
p4148
aS'../data/echr-copy-1/17862_91/jud_en/19961115/001-58068fulltext_nocitations.txt'
p4149
aS'../data/echr-copy-1/2895_07/jud_en/20090428/001-92425fulltext_nocitations.txt'
p4150
aS'../data/echr-copy-1/48990_99/jud_en/20040429/001-61752fulltext_nocitations.txt'
p4151
aS'../data/echr-copy-1/42320_98/jud_en/20020613/001-60504fulltext_nocitations.txt'
p4152
aS'../data/echr-copy-1/47804_99/jud_en/20021112/001-60747fulltext_nocitations.txt'
p4153
aS'../data/echr-copy-1/26828_06/jud_en/20140312/001-141899fulltext_nocitations.txt'
p4154
aS'../data/echr-copy-1/15145_05/jud_en/20080207/001-84961fulltext_nocitations.txt'
p4155
aS'../data/echr-copy-1/73988_01/jud_en/20061003/001-77042fulltext_nocitations.txt'
p4156
aS'../data/echr-copy-1/32577_96/jud_en/20021115/001-60758fulltext_nocitations.txt'
p4157
aS'../data/echr-copy-1/48206_99/jud_en/20030626/001-61184fulltext_nocitations.txt'
p4158
aS'../data/echr-copy-1/1861_05/jud_en/20070510/001-80533fulltext_nocitations.txt'
p4159
aS'../data/echr-copy-1/19160_91/jud_en/19950210/001-57919fulltext_nocitations.txt'
p4160
aS'../data/echr-copy-1/30049_02/jud_en/20090730/001-93866fulltext_nocitations.txt'
p4161
aS'../data/echr-copy-1/88_02/jud_en/20050920/001-70184fulltext_nocitations.txt'
p4162
aS'../data/echr-copy-1/48057_99/jud_en/20041019/001-67103fulltext_nocitations.txt'
p4163
aS'../data/echr-copy-1/53371_99/jud_en/20041116/001-67462fulltext_nocitations.txt'
p4164
aS'../data/echr-copy-1/2393_05/jud_en/20090618/001-93121fulltext_nocitations.txt'
p4165
aS'../data/echr-copy-1/25500_03/jud_en/20070712/001-81635fulltext_nocitations.txt'
p4166
aS'../data/echr-copy-1/46477_99/jud_en/20020314/001-60323fulltext_nocitations.txt'
p4167
aS'../data/echr-copy-1/27004_06/jud_en/20111124/001-107561fulltext_nocitations.txt'
p4168
aS'../data/echr-copy-1/19601_92/jud_en/19981028/001-58253fulltext_nocitations.txt'
p4169
aS'../data/echr-copy-1/21880_03/jud_en/20130402/001-117874fulltext_nocitations.txt'
p4170
aS'../data/echr-copy-1/16073_07/jud_en/20100727/001-100095fulltext_nocitations.txt'
p4171
aS'../data/echr-copy-1/36035_04/jud_en/20120322/001-109788fulltext_nocitations.txt'
p4172
aS'../data/echr-copy-1/46468_06/jud_en/20081222/001-90390fulltext_nocitations.txt'
p4173
aS'../data/echr-copy-1/75038_01/jud_en/20070412/001-80103fulltext_nocitations.txt'
p4174
aS'../data/echr-copy-1/3564_11/jud_en/20130528/001-119968fulltext_nocitations.txt'
p4175
aS'../data/echr-copy-1/52442_09/jud_en/20110719/001-105691fulltext_nocitations.txt'
p4176
aS'../data/echr-copy-1/18527_02/jud_en/20091119/001-95758fulltext_nocitations.txt'
p4177
aS'../data/echr-copy-1/25654_08/jud_en/20120731/001-112536fulltext_nocitations.txt'
p4178
aS'../data/echr-copy-1/37463_04/jud_en/20100401/001-98014fulltext_nocitations.txt'
p4179
aS'../data/echr-copy-1/27183_04/jud_en/20130725/001-123422fulltext_nocitations.txt'
p4180
aS'../data/echr-copy-1/64098_00/jud_en/20040311/001-61670fulltext_nocitations.txt'
p4181
aS'../data/echr-copy-1/24755_94/jud_en/19980923/001-58241fulltext_nocitations.txt'
p4182
aS'../data/echr-copy-1/39597_98/jud_en/20030722/001-61245fulltext_nocitations.txt'
p4183
aS'../data/echr-copy-1/19359_04/jud_en/20091217/001-96389fulltext_nocitations.txt'
p4184
aS'../data/echr-copy-1/28212_95/jud_en/20020926/001-60649fulltext_nocitations.txt'
p4185
aS'../data/echr-copy-1/214_56/jud_en/19620327/001-57433fulltext_nocitations.txt'
p4186
aS'../data/echr-copy-1/17008_07/jud_en/20130212/001-116408fulltext_nocitations.txt'
p4187
aS'../data/echr-copy-1/5029_71/jud_en/19780906/001-57510fulltext_nocitations.txt'
p4188
aS'../data/echr-copy-1/15825_06/jud_en/20071025/001-82987fulltext_nocitations.txt'
p4189
aS'../data/echr-copy-1/9006_80/jud_en/19860708/001-57526fulltext_nocitations.txt'
p4190
aS'../data/echr-copy-1/26124_02/jud_en/20061130/001-78225fulltext_nocitations.txt'
p4191
aS'../data/echr-copy-1/60776_00/jud_en/20041007/001-66927fulltext_nocitations.txt'
p4192
aS'../data/echr-copy-1/75617_01/jud_en/20070208/001-79375fulltext_nocitations.txt'
p4193
aS'../data/echr-copy-1/20972_92/jud_en/19971216/001-58123fulltext_nocitations.txt'
p4194
aS'../data/echr-copy-1/39594_98/jud_en/20010607/001-59511fulltext_nocitations.txt'
p4195
aS'../data/echr-copy-1/9787_82/jud_en/19881005/001-57593fulltext_nocitations.txt'
p4196
aS'../data/echr-copy-1/3989_07/jud_en/20110920/001-108382fulltext_nocitations.txt'
p4197
aS'../data/echr-copy-1/19589_02/jud_en/20051020/001-70698fulltext_nocitations.txt'
p4198
aS'../data/echr-copy-1/7151_75/jud_en/19841218/001-57579fulltext_nocitations.txt'
p4199
aS'../data/echr-copy-1/21417_04/jud_en/20060713/001-76326fulltext_nocitations.txt'
p4200
aS'../data/echr-copy-1/32772_02/jud_en/20090630/001-93265fulltext_nocitations.txt'
p4201
aS'../data/echr-copy-1/15233_05/jud_en/20081016/001-88941fulltext_nocitations.txt'
p4202
aS'../data/echr-copy-1/17440_90/jud_en/19960226/001-57986fulltext_nocitations.txt'
p4203
aS'../data/echr-copy-1/60660_00/jud_en/20030306/001-60976fulltext_nocitations.txt'
p4204
aS'../data/echr-copy-1/40060_08/jud_en/20120918/001-113129fulltext_nocitations.txt'
p4205
aS'../data/echr-copy-1/57942_00/jud_en/20050224/001-68419fulltext_nocitations.txt'
p4206
aS'../data/echr-copy-1/12744_87/jud_en/19910524/001-57677fulltext_nocitations.txt'
p4207
aS'../data/echr-copy-1/23032_02/jud_en/20051006/001-70449fulltext_nocitations.txt'
p4208
aS'../data/echr-copy-1/63134_00/jud_en/20051108/001-70863fulltext_nocitations.txt'
p4209
aS'../data/echr-copy-1/24023_06/jud_en/20090113/001-90545fulltext_nocitations.txt'
p4210
aS'../data/echr-copy-1/6372_06/jud_en/20100406/001-98075fulltext_nocitations.txt'
p4211
aS'../data/echr-copy-1/67149_01/jud_en/20090324/001-91802fulltext_nocitations.txt'
p4212
aS'../data/echr-copy-1/30255_09/jud_en/20140128/001-140234fulltext_nocitations.txt'
p4213
aS'../data/echr-copy-1/23287_05/jud_en/20070510/001-80537fulltext_nocitations.txt'
p4214
aS'../data/echr-copy-1/53943_07/jud_en/20121108/001-114269fulltext_nocitations.txt'
p4215
aS'../data/echr-copy-1/77649_01/jud_en/20060425/001-75144fulltext_nocitations.txt'
p4216
aS'../data/echr-copy-1/15473_89/jud_en/19930922/001-57826fulltext_nocitations.txt'
p4217
aS'../data/echr-copy-1/45963_99/jud_en/20060413/001-73291fulltext_nocitations.txt'
p4218
aS'../data/echr-copy-1/8990_80/jud_en/19840710/001-57497fulltext_nocitations.txt'
p4219
aS'../data/echr-copy-1/15917_89/jud_en/19950608/001-57929fulltext_nocitations.txt'
p4220
aS'../data/echr-copy-1/29334_06/jud_en/20100216/001-97228fulltext_nocitations.txt'
p4221
aa(lp4222
S'54178/00'
p4223
aS'69332/01'
p4224
aS'10559/03'
p4225
aS'19567/02'
p4226
aS'20190/92'
p4227
aS'5044/02'
p4228
aS'27798/95'
p4229
aS'22678/93'
p4230
aS'48542/99'
p4231
aS'37444/97'
p4232
aS'30103/02'
p4233
aS'30240/96'
p4234
aS'16328/03'
p4235
aS'74039/01'
p4236
aS'59261/00'
p4237
aS'77545/01'
p4238
aS'62866/00'
p4239
aS'67979/01'
p4240
aS'33274/96'
p4241
aS'7178/03'
p4242
aS'43276/06'
p4243
aS'26803/02'
p4244
aS'39652/98'
p4245
aS'44302/02'
p4246
aS'4451/70'
p4247
aS'16622/05'
p4248
aS'18390/91'
p4249
aS'45783/05'
p4250
aS'28957/95'
p4251
aS'73547/01'
p4252
aS'63758/00'
p4253
aS'25053/02'
p4254
aS'33654/06'
p4255
aS'41391/06'
p4256
aS'29992/05'
p4257
aS'22313/04'
p4258
aS'35354/04'
p4259
aS'19324/02'
p4260
aS'18949/91'
p4261
aS'32734/96'
p4262
aS'42527/98'
p4263
aS'48015/99'
p4264
aS'28901/95'
p4265
aS'38112/04'
p4266
aS'38971/06'
p4267
aS'30042/08'
p4268
aS'3742/02'
p4269
aS'48129/99'
p4270
aS'55531/00'
p4271
aS'71463/01'
p4272
aS'22774/93'
p4273
aS'3840/05'
p4274
aS'71156/01'
p4275
aS'27912/02'
p4276
aS'31423/96'
p4277
aS'26676/06'
p4278
aS'28358/95'
p4279
aS'28954/02'
p4280
aS'37193/08'
p4281
aS'22009/93'
p4282
aS'20372/11'
p4283
aS'75107/01'
p4284
aS'32668/02'
p4285
aS'59548/00'
p4286
aS'1509/02'
p4287
aS'17647/04'
p4288
aS'39748/98'
p4289
aS'65656/11'
p4290
aS'52895/99'
p4291
aS'11870/03'
p4292
aS'43071/06'
p4293
aS'20376/05'
p4294
aS'61222/00'
p4295
aS'28746/03'
p4296
aS'41840/02'
p4297
aS'41510/98'
p4298
aS'9106/80'
p4299
aS'39510/98'
p4300
aS'25580/03'
p4301
aS'9072/02'
p4302
aS'72683/01'
p4303
aS'30616/05'
p4304
aS'24325/03'
p4305
aS'33086/04'
p4306
aS'57049/00'
p4307
aS'29392/95'
p4308
aS'4640/04'
p4309
aS'47628/06'
p4310
aS'44369/02'
p4311
aS'15828/03'
p4312
aS'14326/11'
p4313
aS'17383/90'
p4314
aS'27049/05'
p4315
aS'55299/07'
p4316
aS'48150/11'
p4317
aS'11491/85'
p4318
aS'12806/87'
p4319
aS'38720/03'
p4320
aS'49398/99'
p4321
aS'36552/02'
p4322
aS'41030/02'
p4323
aS'19776/04'
p4324
aS'75139/01'
p4325
aS'19263/92'
p4326
aS'42750/09'
p4327
aS'10842/84'
p4328
aS'27952/08'
p4329
aS'31464/96'
p4330
aS'25003/06'
p4331
aS'55722/00'
p4332
aS'24746/94'
p4333
aS'45223/05'
p4334
aS'21497/93'
p4335
aS'28090/95'
p4336
aS'12144/86'
p4337
aS'43485/02'
p4338
aS'14450/02'
p4339
aS'15809/02'
p4340
aS'20310/02'
p4341
aS'5947/72'
p4342
aS'77519/01'
p4343
aS'23531/94'
p4344
aS'29808/02'
p4345
aS'31864/06'
p4346
aS'47023/99'
p4347
aS'23657/94'
p4348
aS'17327/02'
p4349
aS'39315/06'
p4350
aS'24550/94'
p4351
aS'4646/02'
p4352
aS'56760/00'
p4353
aS'38460/97'
p4354
aS'24706/02'
p4355
aS'26529/10'
p4356
aS'25360/04'
p4357
aS'21961/93'
p4358
aS'18954/91'
p4359
aS'28648/03'
p4360
aS'12712/02'
p4361
aS'2832/66'
p4362
aS'70494/01'
p4363
aS'22978/05'
p4364
aS'40877/98'
p4365
aS'74727/01'
p4366
aS'2361/05'
p4367
aS'27916/95'
p4368
aS'51543/99'
p4369
aS'43258/98'
p4370
aS'22535/93'
p4371
aS'42775/98'
p4372
aS'74096/01'
p4373
aS'34976/05'
p4374
aS'68880/01'
p4375
aS'33685/05'
p4376
aS'11215/02'
p4377
aS'34983/02'
p4378
aS'25656/94'
p4379
aS'26872/05'
p4380
aS'30979/96'
p4381
aS'24510/06'
p4382
aS'71933/01'
p4383
aS'21689/93'
p4384
aS'13088/09'
p4385
aS'29889/04'
p4386
aS'23818/94'
p4387
aS'56016/00'
p4388
aS'11801/85'
p4389
aS'33294/03'
p4390
aS'42246/02'
p4391
aS'39970/02'
p4392
aS'126/05'
p4393
aS'62506/00'
p4394
aS'22277/93'
p4395
aS'11932/86'
p4396
aS'6563/03'
p4397
aS'53988/07'
p4398
aS'52589/99'
p4399
aS'14396/88'
p4400
aS'60179/09'
p4401
aS'47829/99'
p4402
aS'40905/98'
p4403
aS'44864/98'
p4404
aS'50757/06'
p4405
aS'12380/05'
p4406
aS'31195/96'
p4407
aS'26410/02'
p4408
aS'30873/96'
p4409
aS'34592/97'
p4410
aS'37553/05'
p4411
aS'64927/01'
p4412
aS'53084/99'
p4413
aS'37710/97'
p4414
aS'16530/06'
p4415
aS'56581/00'
p4416
aS'14307/88'
p4417
aS'73604/01'
p4418
aS'23780/08'
p4419
aS'30138/02'
p4420
aS'32964/02'
p4421
aS'11454/85'
p4422
aS'69908/01'
p4423
aS'32558/03'
p4424
aS'39343/98'
p4425
aS'56793/00'
p4426
aS'13541/06'
p4427
aS'30544/96'
p4428
aS'7601/76'
p4429
aS'24951/02'
p4430
aS'20704/92'
p4431
aS'62590/09'
p4432
aS'22070/93'
p4433
aS'62936/00'
p4434
aS'9174/02'
p4435
aS'20882/04'
p4436
aS'7906/77'
p4437
aS'67336/01'
p4438
aS'25753/94'
p4439
aS'8562/79'
p4440
aS'11826/85'
p4441
aS'34684/97'
p4442
aS'34150/04'
p4443
aS'13972/88'
p4444
aS'21593/93'
p4445
aS'17209/02'
p4446
aS'47940/99'
p4447
aS'37345/03'
p4448
aS'1948/04'
p4449
aS'4417/02'
p4450
aS'25052/94'
p4451
aS'31827/96'
p4452
aS'3684/07'
p4453
aS'58104/08'
p4454
aS'10664/05'
p4455
aS'7064/05'
p4456
aS'13425/02'
p4457
aS'13441/87'
p4458
aS'21594/93'
p4459
aS'5124/03'
p4460
aS'31122/05'
p4461
aS'21987/93'
p4462
aS'12033/86'
p4463
aS'15670/04'
p4464
aS'43797/98'
p4465
aS'25843/94'
p4466
aS'307/02'
p4467
aS'32446/96'
p4468
aS'5134/09'
p4469
aS'26433/95'
p4470
aS'66907/01'
p4471
aS'24760/94'
p4472
aS'52690/99'
p4473
aS'28604/03'
p4474
aS'18139/91'
p4475
aS'12583/09'
p4476
aS'12843/87'
p4477
aS'11562/05'
p4478
aS'42703/98'
p4479
aS'23414/02'
p4480
aS'2220/05'
p4481
aS'27295/95'
p4482
aS'12728/87'
p4483
aS'26886/02'
p4484
aS'48242/06'
p4485
aS'5326/04'
p4486
aS'15573/89'
p4487
aS'13616/88'
p4488
aS'20071/07'
p4489
aS'44558/98'
p4490
aS'14647/89'
p4491
aS'21055/09'
p4492
aS'40887/98'
p4493
aS'22603/02'
p4494
aS'9958/04'
p4495
aS'15375/89'
p4496
aS'17303/03'
p4497
aS'3223/07'
p4498
aS'33347/07'
p4499
aS'19632/92'
p4500
aS'37645/97'
p4501
aS'41035/98'
p4502
aS'37251/04'
p4503
aS'44936/07'
p4504
aS'14853/03'
p4505
aS'59498/00'
p4506
aS'23452/94'
p4507
aS'54836/00'
p4508
aS'26307/95'
p4509
aS'57641/00'
p4510
aS'28904/02'
p4511
aS'25706/03'
p4512
aS'50213/08'
p4513
aS'35853/04'
p4514
aS'17869/91'
p4515
aS'15707/10'
p4516
aS'21352/02'
p4517
aS'14139/03'
p4518
aS'17988/02'
p4519
aS'64520/10'
p4520
aS'27996/06'
p4521
aS'33202/96'
p4522
aS'14810/02'
p4523
aS'33549/02'
p4524
aS'25693/94'
p4525
aS'37703/97'
p4526
aS'32092/02'
p4527
aS'17551/02'
p4528
aS'36570/97'
p4529
aS'13343/87'
p4530
aS'74613/01'
p4531
aS'33488/96'
p4532
aS'3305/04'
p4533
aS'73049/01'
p4534
aS'37820/06'
p4535
aS'44511/04'
p4536
aS'26761/95'
p4537
aS'49158/99'
p4538
aS'28523/95'
p4539
aS'13637/03'
p4540
aS'38372/06'
p4541
aS'35760/04'
p4542
aS'25632/02'
p4543
aS'19380/92'
p4544
aS'58590/11'
p4545
aS'19180/03'
p4546
aS'68345/01'
p4547
aS'28488/04'
p4548
aS'19856/04'
p4549
aS'15118/89'
p4550
aS'11944/05'
p4551
aS'34653/04'
p4552
aS'9381/81'
p4553
aS'69519/01'
p4554
aS'26737/95'
p4555
aS'49872/11'
p4556
aS'23865/02'
p4557
aS'34653/08'
p4558
aS'25420/94'
p4559
aS'17912/05'
p4560
aS'31836/04'
p4561
aS'53341/99'
p4562
aS'18877/91'
p4563
aS'44425/08'
p4564
aS'38570/05'
p4565
aS'37374/05'
p4566
aS'58258/09'
p4567
aS'77835/01'
p4568
aS'61651/00'
p4569
aS'17080/07'
p4570
aS'20571/04'
p4571
aS'10465/83'
p4572
aS'40807/07'
p4573
aS'41704/02'
p4574
aS'30686/03'
p4575
aS'13378/05'
p4576
aS'32842/96'
p4577
aS'22600/93'
p4578
aS'4464/70'
p4579
aS'20493/07'
p4580
aS'8978/80'
p4581
aS'28028/95'
p4582
aS'37500/04'
p4583
aS'11612/85'
p4584
aS'13710/88'
p4585
aS'27209/03'
p4586
aS'29182/03'
p4587
aS'14697/07'
p4588
aS'28275/06'
p4589
aS'26436/05'
p4590
aS'27763/05'
p4591
aS'33795/08'
p4592
aS'5515/09'
p4593
aS'17092/04'
p4594
aS'31748/06'
p4595
aS'40984/07'
p4596
aS'3817/07'
p4597
aS'26365/05'
p4598
aS'16474/03'
p4599
aS'287/03'
p4600
aS'22495/93'
p4601
aS'19467/07'
p4602
aS'44962/98'
p4603
aS'3925/05'
p4604
aS'29537/95'
p4605
aS'65191/01'
p4606
aS'4241/03'
p4607
aS'23992/02'
p4608
aS'7821/07'
p4609
aS'19639/92'
p4610
aS'9659/82'
p4611
aS'32981/96'
p4612
aS'20166/92'
p4613
aS'25904/07'
p4614
aS'24478/03'
p4615
aS'4251/02'
p4616
aS'30961/03'
p4617
aS'17674/02'
p4618
aS'5384/03'
p4619
aS'30663/04'
p4620
aS'22014/04'
p4621
aS'20877/04'
p4622
aS'275/02'
p4623
aS'37575/04'
p4624
aS'18375/09'
p4625
aS'33933/05'
p4626
aS'23462/94'
p4627
aS'39958/02'
p4628
aS'8793/79'
p4629
aS'16965/10'
p4630
aS'36813/97'
p4631
aS'60333/00'
p4632
aS'42620/02'
p4633
aS'27568/02'
p4634
aS'8225/78'
p4635
aS'44726/04'
p4636
aS'6924/03'
p4637
aS'6690/02'
p4638
aS'8695/79'
p4639
aS'1005/08'
p4640
aS'27781/95'
p4641
aS'48983/99'
p4642
aS'609/07'
p4643
aS'12463/05'
p4644
aS'21153/02'
p4645
aS'31127/96'
p4646
aS'20745/04'
p4647
aS'33977/96'
p4648
aS'32241/07'
p4649
aS'18990/05'
p4650
aS'39401/04'
p4651
aS'41723/06'
p4652
aS'21906/04'
p4653
aS'28524/95'
p4654
aS'19433/07'
p4655
aS'13440/87'
p4656
aS'27888/04'
p4657
aS'23536/94'
p4658
aS'13026/02'
p4659
aS'24888/94'
p4660
aS'4378/02'
p4661
aS'8398/78'
p4662
aS'1115/02'
p4663
aS'10857/84'
p4664
aS'9464/02'
p4665
aS'32347/02'
p4666
aS'22729/93'
p4667
aS'11800/85'
p4668
aS'25452/03'
p4669
aS'44093/98'
p4670
aS'39846/04'
p4671
aS'21638/03'
p4672
aS'51585/99'
p4673
aS'66460/01'
p4674
aS'27785/95'
p4675
aS'10274/08'
p4676
aS'42606/05'
p4677
aS'24173/06'
p4678
aS'77690/01'
p4679
aS'34215/02'
p4680
aS'15797/89'
p4681
aS'34611/97'
p4682
aS'58497/00'
p4683
aS'20429/02'
p4684
aS'13444/04'
p4685
aS'59502/00'
p4686
aS'24250/11'
p4687
aS'49684/99'
p4688
aS'27295/03'
p4689
aS'11910/85'
p4690
aS'36542/05'
p4691
aS'38998/09'
p4692
aS'15764/89'
p4693
aS'32967/96'
p4694
aS'43589/02'
p4695
aS'75472/01'
p4696
aS'62194/00'
p4697
aS'69756/01'
p4698
aS'57947/00'
p4699
aS'35367/08'
p4700
aS'37616/02'
p4701
aS'10231/02'
p4702
aS'14018/08'
p4703
aS'30997/02'
p4704
aS'65417/01'
p4705
aS'63354/00'
p4706
aS'28309/03'
p4707
aS'50882/99'
p4708
aS'17472/04'
p4709
aS'31443/96'
p4710
aS'44079/98'
p4711
aS'14327/88'
p4712
aS'8992/07'
p4713
aS'10522/83'
p4714
aS'21887/93'
p4715
aS'35677/05'
p4716
aS'4158/05'
p4717
aS'14570/89'
p4718
aS'1448/04'
p4719
aS'28888/02'
p4720
aS'22492/93'
p4721
aS'55408/07'
p4722
aS'19807/92'
p4723
aS'28856/95'
p4724
aS'1409/03'
p4725
aS'37698/97'
p4726
aS'21893/93'
p4727
aS'34481/97'
p4728
aS'41488/98'
p4729
aS'36181/05'
p4730
aS'1503/02'
p4731
aS'43382/02'
p4732
aS'7025/04'
p4733
aS'16621/05'
p4734
aS'31853/96'
p4735
aS'61382/09'
p4736
aS'39690/98'
p4737
aS'74651/01'
p4738
aS'23413/94'
p4739
aS'26772/95'
p4740
aS'30452/96'
p4741
aS'30009/03'
p4742
aS'75618/01'
p4743
aS'46295/99'
p4744
aS'55762/00'
p4745
aS'21454/04'
p4746
aS'45094/06'
p4747
aS'5417/06'
p4748
aS'37598/97'
p4749
aS'37201/97'
p4750
aS'29295/95'
p4751
aS'29192/95'
p4752
aS'58887/00'
p4753
aS'35128/02'
p4754
aS'40799/06'
p4755
aS'12444/05'
p4756
aS'25196/04'
p4757
aS'26261/05'
p4758
aS'22414/93'
p4759
aS'38361/97'
p4760
aS'9118/80'
p4761
aS'29052/03'
p4762
aS'69306/01'
p4763
aS'75529/01'
p4764
aS'34469/05'
p4765
aS'44686/07'
p4766
aS'64752/01'
p4767
aS'74352/11'
p4768
aS'21313/06'
p4769
aS'36772/02'
p4770
aS'29921/96'
p4771
aS'72520/01'
p4772
aS'10486/83'
p4773
aS'37395/97'
p4774
aS'69498/01'
p4775
aS'14518/89'
p4776
aS'18557/06'
p4777
aS'18255/05'
p4778
aS'25181/94'
p4779
aS'74816/01'
p4780
aS'13210/05'
p4781
aS'37019/97'
p4782
aS'13007/02'
p4783
aS'78008/01'
p4784
aS'35605/97'
p4785
aS'54169/00'
p4786
aS'23556/94'
p4787
aS'19558/09'
p4788
aS'34044/96'
p4789
aS'42184/05'
p4790
aS'5953/02'
p4791
aS'33307/02'
p4792
aS'20652/92'
p4793
aS'57448/00'
p4794
aS'22676/93'
p4795
aS'39547/98'
p4796
aS'19776/92'
p4797
aS'18310/06'
p4798
aS'55853/00'
p4799
aS'23379/94'
p4800
aS'16404/03'
p4801
aS'26103/95'
p4802
aS'35349/05'
p4803
aS'29287/02'
p4804
aS'64705/01'
p4805
aS'43622/98'
p4806
aS'56271/00'
p4807
aS'32220/96'
p4808
aS'44068/02'
p4809
aS'33097/96'
p4810
aS'71243/01'
p4811
aS'15576/89'
p4812
aS'27353/95'
p4813
aS'48155/06'
p4814
aS'34438/04'
p4815
aS'11146/11'
p4816
aS'16463/09'
p4817
aS'41228/02'
p4818
aS'14704/03'
p4819
aS'66289/01'
p4820
aS'9186/80'
p4821
aS'33914/02'
p4822
aS'29846/05'
p4823
aS'32559/96'
p4824
aS'29731/96'
p4825
aS'41408/04'
p4826
aS'12868/87'
p4827
aS'37376/05'
p4828
aS'32962/96'
p4829
aS'35350/05'
p4830
aS'26637/95'
p4831
aS'60665/00'
p4832
aS'5310/71'
p4833
aS'21911/03'
p4834
aS'47095/99'
p4835
aS'25498/94'
p4836
aS'13323/02'
p4837
aS'7272/09'
p4838
aS'24959/06'
p4839
aS'67534/01'
p4840
aS'2192/03'
p4841
aS'25803/94'
p4842
aS'61998/00'
p4843
aS'44713/98'
p4844
aS'49198/10'
p4845
aS'13590/88'
p4846
aS'74456/01'
p4847
aS'23806/03'
p4848
aS'50516/99'
p4849
aS'39221/98'
p4850
aS'543/03'
p4851
aS'21040/02'
p4852
aS'23926/02'
p4853
aS'51564/99'
p4854
aS'18944/02'
p4855
aS'9668/06'
p4856
aS'12325/86'
p4857
aS'9286/04'
p4858
aS'38581/97'
p4859
aS'34578/97'
p4860
aS'8130/78'
p4861
aS'12433/86'
p4862
aS'33492/96'
p4863
aS'68448/01'
p4864
aS'31881/96'
p4865
aS'29660/03'
p4866
aS'9990/82'
p4867
aS'52478/99'
p4868
aS'35062/03'
p4869
aS'12919/87'
p4870
aS'14379/88'
p4871
aS'21199/03'
p4872
aS'31247/96'
p4873
aS'36103/04'
p4874
aS'29508/04'
p4875
aS'52812/07'
p4876
aS'23139/07'
p4877
aS'1051/06'
p4878
aS'28883/95'
p4879
aS'27846/05'
p4880
aS'62435/00'
p4881
aS'17748/91'
p4882
aS'14996/05'
p4883
aS'34656/03'
p4884
aS'18535/91'
p4885
aS'73283/01'
p4886
aS'4504/04'
p4887
aS'32455/02'
p4888
aS'12718/87'
p4889
aS'21363/93'
p4890
aS'14934/03'
p4891
aS'61967/00'
p4892
aS'33071/96'
p4893
aS'33218/96'
p4894
aS'9271/07'
p4895
aS'10877/04'
p4896
aS'49636/99'
p4897
aS'1926/03'
p4898
aS'23667/06'
p4899
aS'31556/03'
p4900
aS'37453/97'
p4901
aS'28973/11'
p4902
aS'25444/94'
p4903
aS'6282/06'
p4904
aS'39206/07'
p4905
aS'20824/09'
p4906
aS'28213/95'
p4907
aS'17549/90'
p4908
aS'20315/04'
p4909
aS'25116/94'
p4910
aS'20824/02'
p4911
aS'38794/97'
p4912
aS'34539/02'
p4913
aS'50385/99'
p4914
aS'2747/02'
p4915
aS'13067/03'
p4916
aS'23459/94'
p4917
aS'40892/98'
p4918
aS'35072/97'
p4919
aS'22666/08'
p4920
aS'40962/04'
p4921
aS'28359/05'
p4922
aS'11830/03'
p4923
aS'5193/09'
p4924
aS'21894/93'
p4925
aS'29784/07'
p4926
aS'3932/02'
p4927
aS'43352/98'
p4928
aS'34211/04'
p4929
aS'11581/85'
p4930
aS'1813/07'
p4931
aS'32662/96'
p4932
aS'31725/96'
p4933
aS'48684/99'
p4934
aS'29545/06'
p4935
aS'45214/99'
p4936
aS'5108/02'
p4937
aS'2295/06'
p4938
aS'23763/94'
p4939
aS'36391/02'
p4940
aS'20688/04'
p4941
aS'13467/05'
p4942
aS'32940/08'
p4943
aS'21986/93'
p4944
aS'12316/07'
p4945
aS'19134/05'
p4946
aS'26692/05'
p4947
aS'8544/79'
p4948
aS'31107/96'
p4949
aS'18378/03'
p4950
aS'35527/04'
p4951
aS'41833/04'
p4952
aS'29699/96'
p4953
aS'58971/00'
p4954
aS'28135/95'
p4955
aS'52806/09'
p4956
aS'2040/06'
p4957
aS'45566/08'
p4958
aS'53466/07'
p4959
aS'50034/99'
p4960
aS'13418/03'
p4961
aS'60115/00'
p4962
aS'8721/05'
p4963
aS'25657/94'
p4964
aS'16999/04'
p4965
aS'9120/80'
p4966
aS'54705/08'
p4967
aS'28025/03'
p4968
aS'20390/92'
p4969
aS'54822/00'
p4970
aS'52782/99'
p4971
aS'55674/00'
p4972
aS'34720/97'
p4973
aS'22083/93'
p4974
aS'20524/92'
p4975
aS'29459/10'
p4976
aS'27229/95'
p4977
aS'37046/03'
p4978
aS'10017/10'
p4979
aS'39272/98'
p4980
aS'39013/05'
p4981
aS'12850/87'
p4982
aS'10597/03'
p4983
aS'43393/98'
p4984
aS'29979/04'
p4985
aS'31549/96'
p4986
aS'19382/92'
p4987
aS'29183/95'
p4988
aS'17788/02'
p4989
aS'14338/03'
p4990
aS'63767/00'
p4991
aS'45712/99'
p4992
aS'36989/05'
p4993
aS'19798/04'
p4994
aS'26760/95'
p4995
aS'50326/99'
p4996
aS'43482/02'
p4997
aS'23960/02'
p4998
aS'34630/07'
p4999
aS'9248/81'
p5000
aS'7299/75'
p5001
aS'33732/96'
p5002
aS'32542/96'
p5003
aS'22373/04'
p5004
aS'53924/00'
p5005
aS'48095/99'
p5006
aS'46720/99'
p5007
aS'18984/91'
p5008
aS'39424/02'
p5009
aS'40154/98'
p5010
aS'68335/10'
p5011
aS'61260/08'
p5012
aS'22592/02'
p5013
aS'36258/97'
p5014
aS'31438/06'
p5015
aS'7975/07'
p5016
aS'13146/02'
p5017
aS'47486/07'
p5018
aS'45289/99'
p5019
aS'69481/01'
p5020
aS'12145/86'
p5021
aS'46726/11'
p5022
aS'3475/03'
p5023
aS'33066/04'
p5024
aS'3906/06'
p5025
aS'39188/04'
p5026
aS'50360/08'
p5027
aS'34120/96'
p5028
aS'33014/05'
p5029
aS'4171/03'
p5030
aS'51545/99'
p5031
aS'40035/98'
p5032
aS'7054/10'
p5033
aS'8673/05'
p5034
aS'36274/08'
p5035
aS'13099/04'
p5036
aS'31871/96'
p5037
aS'75975/01'
p5038
aS'12398/86'
p5039
aS'14838/89'
p5040
aS'35394/97'
p5041
aS'21592/93'
p5042
aS'38891/06'
p5043
aS'24541/94'
p5044
aS'34151/04'
p5045
aS'41775/06'
p5046
aS'59653/00'
p5047
aS'30633/06'
p5048
aS'38016/07'
p5049
aS'43854/98'
p5050
aS'11855/85'
p5051
aS'21353/93'
p5052
aS'24295/94'
p5053
aS'37778/04'
p5054
aS'42180/02'
p5055
aS'37439/97'
p5056
aS'11891/85'
p5057
aS'37763/04'
p5058
aS'38523/02'
p5059
aS'37801/97'
p5060
aS'19075/91'
p5061
aS'34320/96'
p5062
aS'32492/96'
p5063
aS'14038/88'
p5064
aS'17584/04'
p5065
aS'29226/03'
p5066
aS'9562/81'
p5067
aS'37700/05'
p5068
aS'45097/05'
p5069
aS'63378/00'
p5070
aS'12312/05'
p5071
aS'11039/02'
p5072
aS'45211/99'
p5073
aS'39810/98'
p5074
aS'67793/10'
p5075
aS'22107/93'
p5076
aS'16982/05'
p5077
aS'31926/96'
p5078
aS'63566/00'
p5079
aS'20134/05'
p5080
aS'35485/05'
p5081
aS'71912/01'
p5082
aS'60750/00'
p5083
aS'5952/07'
p5084
aS'8345/05'
p5085
aS'60132/00'
p5086
aS'42310/04'
p5087
aS'6301/73'
p5088
aS'11068/04'
p5089
aS'6356/04'
p5090
aS'12106/09'
p5091
aS'30210/96'
p5092
aS'20937/07'
p5093
aS'67039/01'
p5094
aS'9261/02'
p5095
aS'49747/11'
p5096
aS'38736/04'
p5097
aS'21462/04'
p5098
aS'33132/02'
p5099
aS'15869/02'
p5100
aS'26124/03'
p5101
aS'57176/00'
p5102
aS'59450/00'
p5103
aS'37095/97'
p5104
aS'5718/10'
p5105
aS'75888/01'
p5106
aS'1371/03'
p5107
aS'39822/07'
p5108
aS'56698/00'
p5109
aS'40132/02'
p5110
aS'30742/03'
p5111
aS'22947/93'
p5112
aS'19823/92'
p5113
aS'20303/07'
p5114
aS'24735/94'
p5115
aS'28940/95'
p5116
aS'74550/12'
p5117
aS'71551/01'
p5118
aS'20727/04'
p5119
aS'20161/06'
p5120
aS'15649/05'
p5121
aS'16969/90'
p5122
aS'24254/03'
p5123
aS'42083/98'
p5124
aS'48191/99'
p5125
aS'7436/02'
p5126
aS'43402/02'
p5127
aS'14226/04'
p5128
aS'67335/01'
p5129
aS'46221/99'
p5130
aS'6847/02'
p5131
aS'1377/04'
p5132
aS'30342/96'
p5133
aS'42281/02'
p5134
aS'29202/95'
p5135
aS'35014/97'
p5136
aS'41902/04'
p5137
aS'33004/07'
p5138
aS'61391/00'
p5139
aS'10174/02'
p5140
aS'27225/05'
p5141
aS'13190/87'
p5142
aS'32644/96'
p5143
aS'18731/91'
p5144
aS'26386/02'
p5145
aS'62208/00'
p5146
aS'10947/04'
p5147
aS'22880/93'
p5148
aS'7367/76'
p5149
aS'56717/00'
p5150
aS'11209/84'
p5151
aS'40518/98'
p5152
aS'36376/04'
p5153
aS'36760/06'
p5154
aS'54810/00'
p5155
aS'17038/04'
p5156
aS'39229/03'
p5157
aS'74266/01'
p5158
aS'4922/04'
p5159
aS'25965/04'
p5160
aS'34960/04'
p5161
aS'42252/02'
p5162
aS'34155/96'
p5163
aS'17419/90'
p5164
aS'42343/98'
p5165
aS'7051/06'
p5166
aS'49608/08'
p5167
aS'44286/06'
p5168
aS'29439/02'
p5169
aS'37112/97'
p5170
aS'35052/04'
p5171
aS'10890/84'
p5172
aS'45744/08'
p5173
aS'8347/05'
p5174
aS'10496/83'
p5175
aS'44521/04'
p5176
aS'48939/99'
p5177
aS'48297/99'
p5178
aS'12598/86'
p5179
aS'8805/79'
p5180
aS'81099/12'
p5181
aS'11548/04'
p5182
aS'14077/05'
p5183
aS'62552/10'
p5184
aS'39050/97'
p5185
aS'10563/83'
p5186
aS'33505/96'
p5187
aS'13071/06'
p5188
aS'39311/05'
p5189
aS'28114/95'
p5190
aS'6011/10'
p5191
aS'2312/08'
p5192
aS'10523/02'
p5193
aS'17851/91'
p5194
aS'6833/74'
p5195
aS'52515/99'
p5196
aS'24528/02'
p5197
aS'40453/98'
p5198
aS'61019/00'
p5199
aS'47148/99'
p5200
aS'28971/95'
p5201
aS'39846/98'
p5202
aS'33706/05'
p5203
aS'31320/05'
p5204
aS'3344/04'
p5205
aS'28394/95'
p5206
aS'75697/01'
p5207
aS'2737/04'
p5208
aS'39437/98'
p5209
aS'75705/01'
p5210
aS'59601/09'
p5211
aS'19813/03'
p5212
aS'66083/01'
p5213
aS'13163/87'
p5214
aS'72286/01'
p5215
aS'9749/82'
p5216
aS'24720/04'
p5217
aS'9580/81'
p5218
aS'15722/05'
p5219
aS'32984/96'
p5220
aS'27061/95'
p5221
aS'32541/96'
p5222
aS'33734/06'
p5223
aS'51837/99'
p5224
aS'18748/91'
p5225
aS'18990/91'
p5226
aS'5962/03'
p5227
aS'75098/01'
p5228
aS'14805/02'
p5229
aS'10249/03'
p5230
aS'39778/07'
p5231
aS'33954/05'
p5232
aS'20999/05'
p5233
aS'71503/01'
p5234
aS'27915/95'
p5235
aS'27685/04'
p5236
aS'1586/05'
p5237
aS'2954/07'
p5238
aS'10398/04'
p5239
aS'9815/82'
p5240
aS'75695/01'
p5241
aS'13797/02'
p5242
aS'63181/00'
p5243
aS'40653/98'
p5244
aS'14448/88'
p5245
aS'2914/02'
p5246
aS'31105/05'
p5247
aS'2202/05'
p5248
aS'36772/06'
p5249
aS'8658/79'
p5250
aS'7525/76'
p5251
aS'20348/92'
p5252
aS'17862/91'
p5253
aS'2895/07'
p5254
aS'48990/99'
p5255
aS'42320/98'
p5256
aS'47804/99'
p5257
aS'26828/06'
p5258
aS'15145/05'
p5259
aS'73988/01'
p5260
aS'32577/96'
p5261
aS'48206/99'
p5262
aS'1861/05'
p5263
aS'19160/91'
p5264
aS'30049/02'
p5265
aS'88/02'
p5266
aS'48057/99'
p5267
aS'53371/99'
p5268
aS'2393/05'
p5269
aS'25500/03'
p5270
aS'46477/99'
p5271
aS'27004/06'
p5272
aS'19601/92'
p5273
aS'21880/03'
p5274
aS'16073/07'
p5275
aS'36035/04'
p5276
aS'46468/06'
p5277
aS'75038/01'
p5278
aS'3564/11'
p5279
aS'52442/09'
p5280
aS'18527/02'
p5281
aS'25654/08'
p5282
aS'37463/04'
p5283
aS'27183/04'
p5284
aS'64098/00'
p5285
aS'24755/94'
p5286
aS'39597/98'
p5287
aS'19359/04'
p5288
aS'28212/95'
p5289
aS'214/56'
p5290
aS'17008/07'
p5291
aS'5029/71'
p5292
aS'15825/06'
p5293
aS'9006/80'
p5294
aS'26124/02'
p5295
aS'60776/00'
p5296
aS'75617/01'
p5297
aS'20972/92'
p5298
aS'39594/98'
p5299
aS'9787/82'
p5300
aS'3989/07'
p5301
aS'19589/02'
p5302
aS'7151/75'
p5303
aS'21417/04'
p5304
aS'32772/02'
p5305
aS'15233/05'
p5306
aS'17440/90'
p5307
aS'60660/00'
p5308
aS'40060/08'
p5309
aS'57942/00'
p5310
aS'12744/87'
p5311
aS'23032/02'
p5312
aS'63134/00'
p5313
aS'24023/06'
p5314
aS'6372/06'
p5315
aS'67149/01'
p5316
aS'30255/09'
p5317
aS'23287/05'
p5318
aS'53943/07'
p5319
aS'77649/01'
p5320
aS'15473/89'
p5321
aS'45963/99'
p5322
aS'8990/80'
p5323
aS'15917/89'
p5324
aS'29334/06'
p5325
aa.